(lp1
(lp2
(lp3
F10000
aa(lp4
F10000
aa(lp5
F10000
aa(lp6
F10000
aa(lp7
F10000
aa(lp8
F10000
aa(lp9
F10000
aa(lp10
F10000
aa(lp11
F10000
aa(lp12
F10000
aa(lp13
F10000
aa(lp14
F10000
aa(lp15
F10000
aa(lp16
F10000
aa(lp17
F10000
aa(lp18
F10000
aa(lp19
F10000
aa(lp20
F10000
aa(lp21
F10000
aa(lp22
F10000
aa(lp23
F10000
aa(lp24
F10000
aa(lp25
F10000
aa(lp26
F10000
aa(lp27
F10000
aa(lp28
F10000
aa(lp29
F10000
aa(lp30
F10000
aa(lp31
F10000
aa(lp32
F10000
aaa(lp33
(lp34
F10000
aa(lp35
F10000
aa(lp36
F10000
aa(lp37
F10000
aa(lp38
F684
aF1684
aF2684
aF3684
aF4684
aF5684
aF6684
aF7684
aF8684
aF9684
aa(lp39
F669
aF1669
aF2669
aF3669
aF4669
aF5669
aF6669
aF7669
aF8669
aF9669
aa(lp40
F658
aF1658
aF2658
aF3658
aF4658
aF5658
aF6658
aF7658
aF8658
aF9658
aa(lp41
F649
aF1649
aF2649
aF3649
aF4649
aF5649
aF6649
aF7649
aF8649
aF9649
aa(lp42
F640
aF1640
aF2640
aF3640
aF4640
aF5640
aF6640
aF7640
aF8640
aF9640
aa(lp43
F633
aF1633
aF2633
aF3633
aF4633
aF5633
aF6633
aF7633
aF8633
aF9633
aa(lp44
F621
aF1621
aF2621
aF3621
aF4621
aF5621
aF6621
aF7621
aF8621
aF9621
aa(lp45
F10000
aa(lp46
F10000
aa(lp47
F10000
aa(lp48
F10000
aa(lp49
F10000
aa(lp50
F10000
aa(lp51
F10000
aa(lp52
F10000
aa(lp53
F10000
aa(lp54
F10000
aa(lp55
F10000
aa(lp56
F10000
aa(lp57
F10000
aa(lp58
F10000
aa(lp59
F10000
aa(lp60
F10000
aa(lp61
F10000
aa(lp62
F10000
aa(lp63
F10000
aaa(lp64
(lp65
F10000
aa(lp66
F10000
aa(lp67
F10000
aa(lp68
F708
aF1708
aF2708
aF3708
aF4708
aF5708
aF6708
aF7708
aF8708
aF9708
aa(lp69
F699
aF1699
aF2699
aF3699
aF4699
aF5699
aF6699
aF7699
aF8699
aF9699
aa(lp70
F10000
aa(lp71
F10000
aa(lp72
F10000
aa(lp73
F10000
aa(lp74
F10000
aa(lp75
F619
aF1619
aF2619
aF3619
aF4619
aF5619
aF6619
aF7619
aF8619
aF9619
aa(lp76
F612
aF1612
aF2612
aF3612
aF4612
aF5612
aF6612
aF7612
aF8612
aF9612
aa(lp77
F606
aF1606
aF2606
aF3606
aF4606
aF5606
aF6606
aF7606
aF8606
aF9606
aa(lp78
F600
aF1600
aF2600
aF3600
aF4600
aF5600
aF6600
aF7600
aF8600
aF9600
aa(lp79
F594
aF1594
aF2594
aF3594
aF4594
aF5594
aF6594
aF7594
aF8594
aF9594
aa(lp80
F590
aF1590
aF2590
aF3590
aF4590
aF5590
aF6590
aF7590
aF8590
aF9590
aa(lp81
F10000
aa(lp82
F10000
aa(lp83
F10000
aa(lp84
F10000
aa(lp85
F10000
aa(lp86
F10000
aa(lp87
F10000
aa(lp88
F10000
aa(lp89
F10000
aa(lp90
F10000
aa(lp91
F10000
aa(lp92
F10000
aa(lp93
F10000
aa(lp94
F10000
aaa(lp95
(lp96
F10000
aa(lp97
F10000
aa(lp98
F10000
aa(lp99
F10000
aa(lp100
F748
aF1748
aF2748
aF3748
aF4748
aF5748
aF6748
aF7748
aF8748
aF9748
aa(lp101
F777
aF1777
aF2777
aF3777
aF4777
aF5777
aF6777
aF7777
aF8777
aF9777
aa(lp102
F10000
aa(lp103
F10000
aa(lp104
F10000
aa(lp105
F10000
aa(lp106
F10000
aa(lp107
F10000
aa(lp108
F10000
aa(lp109
F10000
aa(lp110
F10000
aa(lp111
F588
aF1588
aF2588
aF3588
aF4588
aF5588
aF6588
aF7588
aF8588
aF9588
aa(lp112
F582
aF1582
aF2582
aF3582
aF4582
aF5582
aF6582
aF7582
aF8582
aF9582
aa(lp113
F576
aF1576
aF2576
aF3576
aF4576
aF5576
aF6576
aF7576
aF8576
aF9576
aa(lp114
F571
aF1571
aF2571
aF3571
aF4571
aF5571
aF6571
aF7571
aF8571
aF9571
aa(lp115
F10000
aa(lp116
F10000
aa(lp117
F10000
aa(lp118
F10000
aa(lp119
F10000
aa(lp120
F10000
aa(lp121
F10000
aa(lp122
F10000
aa(lp123
F10000
aa(lp124
F10000
aa(lp125
F10000
aaa(lp126
(lp127
F10000
aa(lp128
F10000
aa(lp129
F10000
aa(lp130
F10000
aa(lp131
F10000
aa(lp132
F787
aF1787
aF2787
aF3787
aF4787
aF5787
aF6787
aF7787
aF8787
aF9787
aa(lp133
F797
aF1797
aF2797
aF3797
aF4797
aF5797
aF6797
aF7797
aF8797
aF9797
aa(lp134
F814
aF1814
aF2814
aF3814
aF4814
aF5814
aF6814
aF7814
aF8814
aF9814
aa(lp135
F10000
aa(lp136
F10000
aa(lp137
F10000
aa(lp138
F10000
aa(lp139
F10000
aa(lp140
F10000
aa(lp141
F10000
aa(lp142
F10000
aa(lp143
F10000
aa(lp144
F10000
aa(lp145
F570
aF1570
aF2570
aF3570
aF4570
aF5570
aF6570
aF7570
aF8570
aF9570
aa(lp146
F564
aF1564
aF2564
aF3564
aF4564
aF5564
aF6564
aF7564
aF8564
aF9564
aa(lp147
F557
aF1557
aF2557
aF3557
aF4557
aF5557
aF6557
aF7557
aF8557
aF9557
aa(lp148
F556
aF1556
aF2556
aF3556
aF4556
aF5556
aF6556
aF7556
aF8556
aF9556
aa(lp149
F10000
aa(lp150
F10000
aa(lp151
F10000
aa(lp152
F10000
aa(lp153
F10000
aa(lp154
F10000
aa(lp155
F10000
aa(lp156
F10000
aaa(lp157
(lp158
F10000
aa(lp159
F10000
aa(lp160
F10000
aa(lp161
F10000
aa(lp162
F10000
aa(lp163
F10000
aa(lp164
F10000
aa(lp165
F823
aF1823
aF2823
aF3823
aF4823
aF5823
aF6823
aF7823
aF8823
aF9823
aa(lp166
F830
aF1830
aF2830
aF3830
aF4830
aF5830
aF6830
aF7830
aF8830
aF9830
aa(lp167
F845
aF1845
aF2845
aF3845
aF4845
aF5845
aF6845
aF7845
aF8845
aF9845
aa(lp168
F10000
aa(lp169
F10000
aa(lp170
F10000
aa(lp171
F10000
aa(lp172
F10000
aa(lp173
F10000
aa(lp174
F10000
aa(lp175
F10000
aa(lp176
F10000
aa(lp177
F10000
aa(lp178
F10000
aa(lp179
F550
aF1550
aF2550
aF3550
aF4550
aF5550
aF6550
aF7550
aF8550
aF9550
aa(lp180
F544
aF1544
aF2544
aF3544
aF4544
aF5544
aF6544
aF7544
aF8544
aF9544
aa(lp181
F10000
aa(lp182
F10000
aa(lp183
F10000
aa(lp184
F10000
aa(lp185
F10000
aa(lp186
F10000
aa(lp187
F10000
aaa(lp188
(lp189
F10000
aa(lp190
F10000
aa(lp191
F10000
aa(lp192
F10000
aa(lp193
F10000
aa(lp194
F10000
aa(lp195
F10000
aa(lp196
F10000
aa(lp197
F10000
aa(lp198
F859
aF1859
aF2859
aF3859
aF4859
aF5859
aF6859
aF7859
aF8859
aF9859
aa(lp199
F860
aF1860
aF2860
aF3860
aF4860
aF5860
aF6860
aF7860
aF8860
aF9860
aa(lp200
F892
aF1892
aF2892
aF3892
aF4892
aF5892
aF6892
aF7892
aF8892
aF9892
aa(lp201
F10000
aa(lp202
F10000
aa(lp203
F10000
aa(lp204
F10000
aa(lp205
F10000
aa(lp206
F10000
aa(lp207
F10000
aa(lp208
F10000
aa(lp209
F10000
aa(lp210
F10000
aa(lp211
F542
aF1542
aF2542
aF3542
aF4542
aF5542
aF6542
aF7542
aF8542
aF9542
aa(lp212
F533
aF1533
aF2533
aF3533
aF4533
aF5533
aF6533
aF7533
aF8533
aF9533
aa(lp213
F532
aF1532
aF2532
aF3532
aF4532
aF5532
aF6532
aF7532
aF8532
aF9532
aa(lp214
F10000
aa(lp215
F10000
aa(lp216
F10000
aa(lp217
F10000
aa(lp218
F10000
aaa(lp219
(lp220
F10000
aa(lp221
F10000
aa(lp222
F10000
aa(lp223
F10000
aa(lp224
F10000
aa(lp225
F10000
aa(lp226
F10000
aa(lp227
F10000
aa(lp228
F10000
aa(lp229
F10000
aa(lp230
F10000
aa(lp231
F894
aF1894
aF2894
aF3894
aF4894
aF5894
aF6894
aF7894
aF8894
aF9894
aa(lp232
F910
aF1910
aF2910
aF3910
aF4910
aF5910
aF6910
aF7910
aF8910
aF9910
aa(lp233
F10000
aa(lp234
F10000
aa(lp235
F10000
aa(lp236
F10000
aa(lp237
F10000
aa(lp238
F10000
aa(lp239
F10000
aa(lp240
F10000
aa(lp241
F10000
aa(lp242
F10000
aa(lp243
F10000
aa(lp244
F521
aF1521
aF2521
aF3521
aF4521
aF5521
aF6521
aF7521
aF8521
aF9521
aa(lp245
F10000
aa(lp246
F10000
aa(lp247
F10000
aa(lp248
F10000
aa(lp249
F10000
aaa(lp250
(lp251
F10000
aa(lp252
F10000
aa(lp253
F10000
aa(lp254
F10000
aa(lp255
F10000
aa(lp256
F10000
aa(lp257
F10000
aa(lp258
F10000
aa(lp259
F10000
aa(lp260
F10000
aa(lp261
F10000
aa(lp262
F10000
aa(lp263
F929
aF1929
aF2929
aF3929
aF4929
aF5929
aF6929
aF7929
aF8929
aF9929
aa(lp264
F932
aF1932
aF2932
aF3932
aF4932
aF5932
aF6932
aF7932
aF8932
aF9932
aa(lp265
F962
aF1962
aF2962
aF3962
aF4962
aF5962
aF6962
aF7962
aF8962
aF9962
aa(lp266
F10000
aa(lp267
F10000
aa(lp268
F10000
aa(lp269
F10000
aa(lp270
F10000
aa(lp271
F10000
aa(lp272
F10000
aa(lp273
F10000
aa(lp274
F10000
aa(lp275
F520
aF1520
aF2520
aF3520
aF4520
aF5520
aF6520
aF7520
aF8520
aF9520
aa(lp276
F511
aF1511
aF2511
aF3511
aF4511
aF5511
aF6511
aF7511
aF8511
aF9511
aa(lp277
F10000
aa(lp278
F10000
aa(lp279
F10000
aa(lp280
F10000
aaa(lp281
(lp282
F10000
aa(lp283
F10000
aa(lp284
F10000
aa(lp285
F10000
aa(lp286
F10000
aa(lp287
F10000
aa(lp288
F10000
aa(lp289
F10000
aa(lp290
F10000
aa(lp291
F10000
aa(lp292
F10000
aa(lp293
F10000
aa(lp294
F10000
aa(lp295
F10000
aa(lp296
F0
aF965
aF1000
aF1965
aF2000
aF2965
aF3000
aF3965
aF4000
aF4965
aF5000
aF5965
aF6000
aF6965
aF7000
aF7965
aF8000
aF8965
aF9000
aF9965
aa(lp297
F10000
aa(lp298
F10000
aa(lp299
F10000
aa(lp300
F10000
aa(lp301
F10000
aa(lp302
F10000
aa(lp303
F10000
aa(lp304
F10000
aa(lp305
F10000
aa(lp306
F10000
aa(lp307
F490
aF1490
aF2490
aF3490
aF4490
aF5490
aF6490
aF7490
aF8490
aF9490
aa(lp308
F10000
aa(lp309
F10000
aa(lp310
F10000
aa(lp311
F10000
aaa(lp312
(lp313
F10000
aa(lp314
F10000
aa(lp315
F10000
aa(lp316
F10000
aa(lp317
F10000
aa(lp318
F10000
aa(lp319
F10000
aa(lp320
F10000
aa(lp321
F10000
aa(lp322
F10000
aa(lp323
F10000
aa(lp324
F10000
aa(lp325
F69
aF1069
aF2069
aF3069
aF4069
aF5069
aF6069
aF7069
aF8069
aF9069
aa(lp326
F39
aF1039
aF2039
aF3039
aF4039
aF5039
aF6039
aF7039
aF8039
aF9039
aa(lp327
F36
aF1036
aF2036
aF3036
aF4036
aF5036
aF6036
aF7036
aF8036
aF9036
aa(lp328
F10000
aa(lp329
F10000
aa(lp330
F10000
aa(lp331
F10000
aa(lp332
F10000
aa(lp333
F10000
aa(lp334
F10000
aa(lp335
F10000
aa(lp336
F10000
aa(lp337
F480
aF1480
aF2480
aF3480
aF4480
aF5480
aF6480
aF7480
aF8480
aF9480
aa(lp338
F481
aF1481
aF2481
aF3481
aF4481
aF5481
aF6481
aF7481
aF8481
aF9481
aa(lp339
F10000
aa(lp340
F10000
aa(lp341
F10000
aa(lp342
F10000
aaa(lp343
(lp344
F10000
aa(lp345
F10000
aa(lp346
F10000
aa(lp347
F10000
aa(lp348
F10000
aa(lp349
F10000
aa(lp350
F10000
aa(lp351
F10000
aa(lp352
F10000
aa(lp353
F10000
aa(lp354
F10000
aa(lp355
F91
aF1091
aF2091
aF3091
aF4091
aF5091
aF6091
aF7091
aF8091
aF9091
aa(lp356
F72
aF1072
aF2072
aF3072
aF4072
aF5072
aF6072
aF7072
aF8072
aF9072
aa(lp357
F10000
aa(lp358
F10000
aa(lp359
F10000
aa(lp360
F10000
aa(lp361
F10000
aa(lp362
F10000
aa(lp363
F10000
aa(lp364
F10000
aa(lp365
F10000
aa(lp366
F10000
aa(lp367
F10000
aa(lp368
F469
aF1469
aF2469
aF3469
aF4469
aF5469
aF6469
aF7469
aF8469
aF9469
aa(lp369
F10000
aa(lp370
F10000
aa(lp371
F10000
aa(lp372
F10000
aa(lp373
F10000
aaa(lp374
(lp375
F10000
aa(lp376
F10000
aa(lp377
F10000
aa(lp378
F10000
aa(lp379
F10000
aa(lp380
F10000
aa(lp381
F10000
aa(lp382
F10000
aa(lp383
F10000
aa(lp384
F141
aF1141
aF2141
aF3141
aF4141
aF5141
aF6141
aF7141
aF8141
aF9141
aa(lp385
F109
aF1109
aF2109
aF3109
aF4109
aF5109
aF6109
aF7109
aF8109
aF9109
aa(lp386
F107
aF1107
aF2107
aF3107
aF4107
aF5107
aF6107
aF7107
aF8107
aF9107
aa(lp387
F10000
aa(lp388
F10000
aa(lp389
F10000
aa(lp390
F10000
aa(lp391
F10000
aa(lp392
F10000
aa(lp393
F10000
aa(lp394
F10000
aa(lp395
F10000
aa(lp396
F10000
aa(lp397
F457
aF1457
aF2457
aF3457
aF4457
aF5457
aF6457
aF7457
aF8457
aF9457
aa(lp398
F459
aF1459
aF2459
aF3459
aF4459
aF5459
aF6459
aF7459
aF8459
aF9459
aa(lp399
F468
aF1468
aF2468
aF3468
aF4468
aF5468
aF6468
aF7468
aF8468
aF9468
aa(lp400
F10000
aa(lp401
F10000
aa(lp402
F10000
aa(lp403
F10000
aa(lp404
F10000
aaa(lp405
(lp406
F10000
aa(lp407
F10000
aa(lp408
F10000
aa(lp409
F10000
aa(lp410
F10000
aa(lp411
F10000
aa(lp412
F10000
aa(lp413
F171
aF1171
aF2171
aF3171
aF4171
aF5171
aF6171
aF7171
aF8171
aF9171
aa(lp414
F156
aF1156
aF2156
aF3156
aF4156
aF5156
aF6156
aF7156
aF8156
aF9156
aa(lp415
F142
aF1142
aF2142
aF3142
aF4142
aF5142
aF6142
aF7142
aF8142
aF9142
aa(lp416
F10000
aa(lp417
F10000
aa(lp418
F10000
aa(lp419
F10000
aa(lp420
F10000
aa(lp421
F10000
aa(lp422
F10000
aa(lp423
F10000
aa(lp424
F10000
aa(lp425
F10000
aa(lp426
F10000
aa(lp427
F445
aF1445
aF2445
aF3445
aF4445
aF5445
aF6445
aF7445
aF8445
aF9445
aa(lp428
F451
aF1451
aF2451
aF3451
aF4451
aF5451
aF6451
aF7451
aF8451
aF9451
aa(lp429
F10000
aa(lp430
F10000
aa(lp431
F10000
aa(lp432
F10000
aa(lp433
F10000
aa(lp434
F10000
aa(lp435
F10000
aaa(lp436
(lp437
F10000
aa(lp438
F10000
aa(lp439
F10000
aa(lp440
F10000
aa(lp441
F10000
aa(lp442
F204
aF1204
aF2204
aF3204
aF4204
aF5204
aF6204
aF7204
aF8204
aF9204
aa(lp443
F187
aF1187
aF2187
aF3187
aF4187
aF5187
aF6187
aF7187
aF8187
aF9187
aa(lp444
F178
aF1178
aF2178
aF3178
aF4178
aF5178
aF6178
aF7178
aF8178
aF9178
aa(lp445
F10000
aa(lp446
F10000
aa(lp447
F10000
aa(lp448
F10000
aa(lp449
F10000
aa(lp450
F10000
aa(lp451
F10000
aa(lp452
F10000
aa(lp453
F10000
aa(lp454
F10000
aa(lp455
F430
aF1430
aF2430
aF3430
aF4430
aF5430
aF6430
aF7430
aF8430
aF9430
aa(lp456
F431
aF1431
aF2431
aF3431
aF4431
aF5431
aF6431
aF7431
aF8431
aF9431
aa(lp457
F437
aF1437
aF2437
aF3437
aF4437
aF5437
aF6437
aF7437
aF8437
aF9437
aa(lp458
F444
aF1444
aF2444
aF3444
aF4444
aF5444
aF6444
aF7444
aF8444
aF9444
aa(lp459
F10000
aa(lp460
F10000
aa(lp461
F10000
aa(lp462
F10000
aa(lp463
F10000
aa(lp464
F10000
aa(lp465
F10000
aa(lp466
F10000
aaa(lp467
(lp468
F10000
aa(lp469
F10000
aa(lp470
F10000
aa(lp471
F10000
aa(lp472
F224
aF1224
aF2224
aF3224
aF4224
aF5224
aF6224
aF7224
aF8224
aF9224
aa(lp473
F214
aF1214
aF2214
aF3214
aF4214
aF5214
aF6214
aF7214
aF8214
aF9214
aa(lp474
F10000
aa(lp475
F10000
aa(lp476
F10000
aa(lp477
F10000
aa(lp478
F10000
aa(lp479
F10000
aa(lp480
F10000
aa(lp481
F10000
aa(lp482
F10000
aa(lp483
F411
aF1411
aF2411
aF3411
aF4411
aF5411
aF6411
aF7411
aF8411
aF9411
aa(lp484
F413
aF1413
aF2413
aF3413
aF4413
aF5413
aF6413
aF7413
aF8413
aF9413
aa(lp485
F419
aF1419
aF2419
aF3419
aF4419
aF5419
aF6419
aF7419
aF8419
aF9419
aa(lp486
F425
aF1425
aF2425
aF3425
aF4425
aF5425
aF6425
aF7425
aF8425
aF9425
aa(lp487
F10000
aa(lp488
F10000
aa(lp489
F10000
aa(lp490
F10000
aa(lp491
F10000
aa(lp492
F10000
aa(lp493
F10000
aa(lp494
F10000
aa(lp495
F10000
aa(lp496
F10000
aa(lp497
F10000
aaa(lp498
(lp499
F10000
aa(lp500
F10000
aa(lp501
F10000
aa(lp502
F253
aF1253
aF2253
aF3253
aF4253
aF5253
aF6253
aF7253
aF8253
aF9253
aa(lp503
F293
aF1293
aF2293
aF3293
aF4293
aF5293
aF6293
aF7293
aF8293
aF9293
aa(lp504
F10000
aa(lp505
F10000
aa(lp506
F10000
aa(lp507
F10000
aa(lp508
F10000
aa(lp509
F380
aF1380
aF2380
aF3380
aF4380
aF5380
aF6380
aF7380
aF8380
aF9380
aa(lp510
F382
aF1382
aF2382
aF3382
aF4382
aF5382
aF6382
aF7382
aF8382
aF9382
aa(lp511
F389
aF1389
aF2389
aF3389
aF4389
aF5389
aF6389
aF7389
aF8389
aF9389
aa(lp512
F395
aF1395
aF2395
aF3395
aF4395
aF5395
aF6395
aF7395
aF8395
aF9395
aa(lp513
F401
aF1401
aF2401
aF3401
aF4401
aF5401
aF6401
aF7401
aF8401
aF9401
aa(lp514
F407
aF1407
aF2407
aF3407
aF4407
aF5407
aF6407
aF7407
aF8407
aF9407
aa(lp515
F10000
aa(lp516
F10000
aa(lp517
F10000
aa(lp518
F10000
aa(lp519
F10000
aa(lp520
F10000
aa(lp521
F10000
aa(lp522
F10000
aa(lp523
F10000
aa(lp524
F10000
aa(lp525
F10000
aa(lp526
F10000
aa(lp527
F10000
aa(lp528
F10000
aaa(lp529
(lp530
F10000
aa(lp531
F10000
aa(lp532
F10000
aa(lp533
F10000
aa(lp534
F302
aF1302
aF2302
aF3302
aF4302
aF5302
aF6302
aF7302
aF8302
aF9302
aa(lp535
F317
aF1317
aF2317
aF3317
aF4317
aF5317
aF6317
aF7317
aF8317
aF9317
aa(lp536
F332
aF1332
aF2332
aF3332
aF4332
aF5332
aF6332
aF7332
aF8332
aF9332
aa(lp537
F343
aF1343
aF2343
aF3343
aF4343
aF5343
aF6343
aF7343
aF8343
aF9343
aa(lp538
F352
aF1352
aF2352
aF3352
aF4352
aF5352
aF6352
aF7352
aF8352
aF9352
aa(lp539
F361
aF1361
aF2361
aF3361
aF4361
aF5361
aF6361
aF7361
aF8361
aF9361
aa(lp540
F368
aF1368
aF2368
aF3368
aF4368
aF5368
aF6368
aF7368
aF8368
aF9368
aa(lp541
F10000
aa(lp542
F10000
aa(lp543
F10000
aa(lp544
F10000
aa(lp545
F10000
aa(lp546
F10000
aa(lp547
F10000
aa(lp548
F10000
aa(lp549
F10000
aa(lp550
F10000
aa(lp551
F10000
aa(lp552
F10000
aa(lp553
F10000
aa(lp554
F10000
aa(lp555
F10000
aa(lp556
F10000
aa(lp557
F10000
aa(lp558
F10000
aa(lp559
F10000
aaa(lp560
(lp561
F10000
aa(lp562
F10000
aa(lp563
F10000
aa(lp564
F10000
aa(lp565
F10000
aa(lp566
F10000
aa(lp567
F10000
aa(lp568
F10000
aa(lp569
F10000
aa(lp570
F10000
aa(lp571
F10000
aa(lp572
F10000
aa(lp573
F10000
aa(lp574
F10000
aa(lp575
F10000
aa(lp576
F10000
aa(lp577
F10000
aa(lp578
F10000
aa(lp579
F10000
aa(lp580
F10000
aa(lp581
F10000
aa(lp582
F10000
aa(lp583
F10000
aa(lp584
F10000
aa(lp585
F10000
aa(lp586
F10000
aa(lp587
F10000
aa(lp588
F10000
aa(lp589
F10000
aa(lp590
F10000
aaa(lp591
(lp592
F10000
aa(lp593
F10000
aa(lp594
F10000
aa(lp595
F10000
aa(lp596
F10000
aa(lp597
F10000
aa(lp598
F10000
aa(lp599
F10000
aa(lp600
F10000
aa(lp601
F10000
aa(lp602
F10000
aa(lp603
F10000
aa(lp604
F10000
aa(lp605
F10000
aa(lp606
F10000
aa(lp607
F10000
aa(lp608
F10000
aa(lp609
F10000
aa(lp610
F10000
aa(lp611
F10000
aa(lp612
F10000
aa(lp613
F10000
aa(lp614
F10000
aa(lp615
F10000
aa(lp616
F10000
aa(lp617
F10000
aa(lp618
F10000
aa(lp619
F10000
aa(lp620
F10000
aa(lp621
F10000
aaa.