(lp1
(lp2
(lp3
F1000
aa(lp4
F1000
aa(lp5
F1000
aa(lp6
F1000
aa(lp7
F1000
aa(lp8
F1000
aa(lp9
F1000
aa(lp10
F1000
aa(lp11
F665
aF825
aa(lp12
F651
aF836
aa(lp13
F638
aF850
aa(lp14
F632
aF863
aa(lp15
F1000
aa(lp16
F1000
aa(lp17
F1000
aa(lp18
F1000
aa(lp19
F1000
aa(lp20
F1000
aa(lp21
F1000
aa(lp22
F1000
aa(lp23
F1000
aa(lp24
F1000
aa(lp25
F1000
aa(lp26
F1000
aa(lp27
F1000
aa(lp28
F1000
aa(lp29
F1000
aa(lp30
F1000
aa(lp31
F1000
aa(lp32
F1000
aaa(lp33
(lp34
F1000
aa(lp35
F1000
aa(lp36
F1000
aa(lp37
F1000
aa(lp38
F1000
aa(lp39
F1000
aa(lp40
F1000
aa(lp41
F1000
aa(lp42
F1000
aa(lp43
F1000
aa(lp44
F1000
aa(lp45
F613
aF869
aa(lp46
F600
aF888
aa(lp47
F598
aF901
aa(lp48
F1000
aa(lp49
F1000
aa(lp50
F1000
aa(lp51
F1000
aa(lp52
F1000
aa(lp53
F1000
aa(lp54
F1000
aa(lp55
F1000
aa(lp56
F1000
aa(lp57
F1000
aa(lp58
F1000
aa(lp59
F1000
aa(lp60
F1000
aa(lp61
F1000
aa(lp62
F1000
aa(lp63
F1000
aaa(lp64
(lp65
F1000
aa(lp66
F1000
aa(lp67
F1000
aa(lp68
F1000
aa(lp69
F1000
aa(lp70
F1000
aa(lp71
F1000
aa(lp72
F1000
aa(lp73
F1000
aa(lp74
F1000
aa(lp75
F1000
aa(lp76
F1000
aa(lp77
F1000
aa(lp78
F586
aa(lp79
F571
aF915
aa(lp80
F569
aF930
aa(lp81
F1000
aa(lp82
F1000
aa(lp83
F1000
aa(lp84
F1000
aa(lp85
F1000
aa(lp86
F1000
aa(lp87
F1000
aa(lp88
F1000
aa(lp89
F1000
aa(lp90
F1000
aa(lp91
F1000
aa(lp92
F1000
aa(lp93
F1000
aa(lp94
F1000
aaa(lp95
(lp96
F1000
aa(lp97
F1000
aa(lp98
F1000
aa(lp99
F1000
aa(lp100
F1000
aa(lp101
F1000
aa(lp102
F1000
aa(lp103
F1000
aa(lp104
F1000
aa(lp105
F1000
aa(lp106
F1000
aa(lp107
F1000
aa(lp108
F1000
aa(lp109
F1000
aa(lp110
F1000
aa(lp111
F553
aa(lp112
F542
aF948
aa(lp113
F1000
aa(lp114
F1000
aa(lp115
F1000
aa(lp116
F1000
aa(lp117
F1000
aa(lp118
F1000
aa(lp119
F1000
aa(lp120
F1000
aa(lp121
F1000
aa(lp122
F1000
aa(lp123
F1000
aa(lp124
F1000
aa(lp125
F1000
aaa(lp126
(lp127
F1000
aa(lp128
F1000
aa(lp129
F1000
aa(lp130
F1000
aa(lp131
F1000
aa(lp132
F1000
aa(lp133
F1000
aa(lp134
F1000
aa(lp135
F1000
aa(lp136
F1000
aa(lp137
F1000
aa(lp138
F1000
aa(lp139
F1000
aa(lp140
F1000
aa(lp141
F1000
aa(lp142
F1000
aa(lp143
F526
aF959
aa(lp144
F491
aF975
aa(lp145
F1000
aa(lp146
F1000
aa(lp147
F1000
aa(lp148
F1000
aa(lp149
F1000
aa(lp150
F1000
aa(lp151
F1000
aa(lp152
F1000
aa(lp153
F1000
aa(lp154
F1000
aa(lp155
F1000
aa(lp156
F1000
aaa(lp157
(lp158
F1000
aa(lp159
F1000
aa(lp160
F1000
aa(lp161
F1000
aa(lp162
F1000
aa(lp163
F1000
aa(lp164
F1000
aa(lp165
F1000
aa(lp166
F1000
aa(lp167
F1000
aa(lp168
F1000
aa(lp169
F1000
aa(lp170
F1000
aa(lp171
F1000
aa(lp172
F1000
aa(lp173
F1000
aa(lp174
F26
aF466
aa(lp175
F10
aF475
aa(lp176
F1000
aa(lp177
F1000
aa(lp178
F1000
aa(lp179
F1000
aa(lp180
F1000
aa(lp181
F1000
aa(lp182
F1000
aa(lp183
F1000
aa(lp184
F1000
aa(lp185
F1000
aa(lp186
F1000
aa(lp187
F1000
aaa(lp188
(lp189
F1000
aa(lp190
F1000
aa(lp191
F1000
aa(lp192
F1000
aa(lp193
F1000
aa(lp194
F1000
aa(lp195
F1000
aa(lp196
F1000
aa(lp197
F1000
aa(lp198
F1000
aa(lp199
F1000
aa(lp200
F1000
aa(lp201
F1000
aa(lp202
F1000
aa(lp203
F1000
aa(lp204
F53
aF439
aa(lp205
F35
aF448
aa(lp206
F1000
aa(lp207
F1000
aa(lp208
F1000
aa(lp209
F1000
aa(lp210
F1000
aa(lp211
F1000
aa(lp212
F1000
aa(lp213
F1000
aa(lp214
F1000
aa(lp215
F1000
aa(lp216
F1000
aa(lp217
F1000
aa(lp218
F1000
aaa(lp219
(lp220
F1000
aa(lp221
F1000
aa(lp222
F1000
aa(lp223
F1000
aa(lp224
F1000
aa(lp225
F1000
aa(lp226
F1000
aa(lp227
F1000
aa(lp228
F1000
aa(lp229
F1000
aa(lp230
F1000
aa(lp231
F1000
aa(lp232
F1000
aa(lp233
F86
aF411
aa(lp234
F71
aF415
aa(lp235
F62
aF430
aa(lp236
F1000
aa(lp237
F1000
aa(lp238
F1000
aa(lp239
F1000
aa(lp240
F1000
aa(lp241
F1000
aa(lp242
F1000
aa(lp243
F1000
aa(lp244
F1000
aa(lp245
F1000
aa(lp246
F1000
aa(lp247
F1000
aa(lp248
F1000
aa(lp249
F1000
aaa(lp250
(lp251
F1000
aa(lp252
F1000
aa(lp253
F1000
aa(lp254
F1000
aa(lp255
F1000
aa(lp256
F1000
aa(lp257
F1000
aa(lp258
F1000
aa(lp259
F1000
aa(lp260
F1000
aa(lp261
F1000
aa(lp262
F113
aF379
aa(lp263
F100
aF388
aa(lp264
F90
aF401
aa(lp265
F1000
aa(lp266
F1000
aa(lp267
F1000
aa(lp268
F1000
aa(lp269
F1000
aa(lp270
F1000
aa(lp271
F1000
aa(lp272
F1000
aa(lp273
F1000
aa(lp274
F1000
aa(lp275
F1000
aa(lp276
F1000
aa(lp277
F1000
aa(lp278
F1000
aa(lp279
F1000
aa(lp280
F1000
aaa(lp281
(lp282
F1000
aa(lp283
F1000
aa(lp284
F1000
aa(lp285
F1000
aa(lp286
F1000
aa(lp287
F1000
aa(lp288
F1000
aa(lp289
F1000
aa(lp290
F1000
aa(lp291
F151
aF339
aa(lp292
F138
aF350
aa(lp293
F122
aF363
aa(lp294
F1000
aa(lp295
F1000
aa(lp296
F1000
aa(lp297
F1000
aa(lp298
F1000
aa(lp299
F1000
aa(lp300
F1000
aa(lp301
F1000
aa(lp302
F1000
aa(lp303
F1000
aa(lp304
F1000
aa(lp305
F1000
aa(lp306
F1000
aa(lp307
F1000
aa(lp308
F1000
aa(lp309
F1000
aa(lp310
F1000
aa(lp311
F1000
aaa(lp312
(lp313
F1000
aa(lp314
F1000
aa(lp315
F1000
aa(lp316
F1000
aa(lp317
F1000
aa(lp318
F225
aa(lp319
F198
aF276
aa(lp320
F180
aF303
aa(lp321
F165
aF321
aa(lp322
F162
aF336
aa(lp323
F1000
aa(lp324
F1000
aa(lp325
F1000
aa(lp326
F1000
aa(lp327
F1000
aa(lp328
F1000
aa(lp329
F1000
aa(lp330
F1000
aa(lp331
F1000
aa(lp332
F1000
aa(lp333
F1000
aa(lp334
F1000
aa(lp335
F1000
aa(lp336
F1000
aa(lp337
F1000
aa(lp338
F1000
aa(lp339
F1000
aa(lp340
F1000
aa(lp341
F1000
aa(lp342
F1000
aaa(lp343
(lp344
F1000
aa(lp345
F1000
aa(lp346
F1000
aa(lp347
F1000
aa(lp348
F1000
aa(lp349
F1000
aa(lp350
F1000
aa(lp351
F1000
aa(lp352
F1000
aa(lp353
F1000
aa(lp354
F1000
aa(lp355
F1000
aa(lp356
F1000
aa(lp357
F1000
aa(lp358
F1000
aa(lp359
F1000
aa(lp360
F1000
aa(lp361
F1000
aa(lp362
F1000
aa(lp363
F1000
aa(lp364
F1000
aa(lp365
F1000
aa(lp366
F1000
aa(lp367
F1000
aa(lp368
F1000
aa(lp369
F1000
aa(lp370
F1000
aa(lp371
F1000
aa(lp372
F1000
aa(lp373
F1000
aaa(lp374
(lp375
F1000
aa(lp376
F1000
aa(lp377
F1000
aa(lp378
F1000
aa(lp379
F1000
aa(lp380
F1000
aa(lp381
F1000
aa(lp382
F1000
aa(lp383
F1000
aa(lp384
F1000
aa(lp385
F1000
aa(lp386
F1000
aa(lp387
F1000
aa(lp388
F1000
aa(lp389
F1000
aa(lp390
F1000
aa(lp391
F1000
aa(lp392
F1000
aa(lp393
F1000
aa(lp394
F1000
aa(lp395
F1000
aa(lp396
F1000
aa(lp397
F1000
aa(lp398
F1000
aa(lp399
F1000
aa(lp400
F1000
aa(lp401
F1000
aa(lp402
F1000
aa(lp403
F1000
aa(lp404
F1000
aaa(lp405
(lp406
F1000
aa(lp407
F1000
aa(lp408
F1000
aa(lp409
F1000
aa(lp410
F1000
aa(lp411
F1000
aa(lp412
F1000
aa(lp413
F1000
aa(lp414
F1000
aa(lp415
F1000
aa(lp416
F1000
aa(lp417
F1000
aa(lp418
F1000
aa(lp419
F1000
aa(lp420
F1000
aa(lp421
F1000
aa(lp422
F1000
aa(lp423
F1000
aa(lp424
F1000
aa(lp425
F1000
aa(lp426
F1000
aa(lp427
F1000
aa(lp428
F1000
aa(lp429
F1000
aa(lp430
F1000
aa(lp431
F1000
aa(lp432
F1000
aa(lp433
F1000
aa(lp434
F1000
aa(lp435
F1000
aaa(lp436
(lp437
F1000
aa(lp438
F1000
aa(lp439
F1000
aa(lp440
F1000
aa(lp441
F1000
aa(lp442
F1000
aa(lp443
F1000
aa(lp444
F1000
aa(lp445
F1000
aa(lp446
F1000
aa(lp447
F1000
aa(lp448
F1000
aa(lp449
F1000
aa(lp450
F1000
aa(lp451
F1000
aa(lp452
F1000
aa(lp453
F1000
aa(lp454
F1000
aa(lp455
F1000
aa(lp456
F1000
aa(lp457
F1000
aa(lp458
F1000
aa(lp459
F1000
aa(lp460
F1000
aa(lp461
F1000
aa(lp462
F1000
aa(lp463
F1000
aa(lp464
F1000
aa(lp465
F1000
aa(lp466
F1000
aaa.