(lp1
(lp2
(lp3
F10000
aa(lp4
F10000
aa(lp5
F10000
aa(lp6
F10000
aa(lp7
F10000
aa(lp8
F10000
aa(lp9
F10000
aa(lp10
F10000
aa(lp11
F10000
aa(lp12
F10000
aa(lp13
F10000
aa(lp14
F10000
aa(lp15
F10000
aa(lp16
F10000
aa(lp17
F10000
aa(lp18
F10000
aa(lp19
F10000
aa(lp20
F10000
aa(lp21
F10000
aa(lp22
F10000
aa(lp23
F10000
aa(lp24
F10000
aa(lp25
F10000
aa(lp26
F10000
aa(lp27
F10000
aa(lp28
F10000
aa(lp29
F10000
aa(lp30
F10000
aa(lp31
F10000
aa(lp32
F10000
aaa(lp33
(lp34
F10000
aa(lp35
F10000
aa(lp36
F10000
aa(lp37
F10000
aa(lp38
F10000
aa(lp39
F10000
aa(lp40
F10000
aa(lp41
F10000
aa(lp42
F10000
aa(lp43
F10000
aa(lp44
F10000
aa(lp45
F10000
aa(lp46
F10000
aa(lp47
F10000
aa(lp48
F10000
aa(lp49
F10000
aa(lp50
F10000
aa(lp51
F10000
aa(lp52
F10000
aa(lp53
F10000
aa(lp54
F10000
aa(lp55
F10000
aa(lp56
F10000
aa(lp57
F10000
aa(lp58
F10000
aa(lp59
F10000
aa(lp60
F10000
aa(lp61
F10000
aa(lp62
F10000
aa(lp63
F10000
aaa(lp64
(lp65
F10000
aa(lp66
F10000
aa(lp67
F10000
aa(lp68
F10000
aa(lp69
F10000
aa(lp70
F10000
aa(lp71
F738
aF1738
aF2738
aF3738
aF4738
aF5738
aF6738
aF7738
aF8738
aF9738
aa(lp72
F765
aF1765
aF2765
aF3765
aF4765
aF5765
aF6765
aF7765
aF8765
aF9765
aa(lp73
F795
aF1795
aF2795
aF3795
aF4795
aF5795
aF6795
aF7795
aF8795
aF9795
aa(lp74
F825
aF1825
aF2825
aF3825
aF4825
aF5825
aF6825
aF7825
aF8825
aF9825
aa(lp75
F856
aF1856
aF2856
aF3856
aF4856
aF5856
aF6856
aF7856
aF8856
aF9856
aa(lp76
F887
aF1887
aF2887
aF3887
aF4887
aF5887
aF6887
aF7887
aF8887
aF9887
aa(lp77
F10000
aa(lp78
F10000
aa(lp79
F10000
aa(lp80
F10000
aa(lp81
F10000
aa(lp82
F10000
aa(lp83
F10000
aa(lp84
F10000
aa(lp85
F10000
aa(lp86
F10000
aa(lp87
F10000
aa(lp88
F10000
aa(lp89
F10000
aa(lp90
F10000
aa(lp91
F10000
aa(lp92
F10000
aa(lp93
F10000
aa(lp94
F10000
aaa(lp95
(lp96
F10000
aa(lp97
F10000
aa(lp98
F10000
aa(lp99
F10000
aa(lp100
F10000
aa(lp101
F712
aF1712
aF2712
aF3712
aF4712
aF5712
aF6712
aF7712
aF8712
aF9712
aa(lp102
F733
aF1733
aF2733
aF3733
aF4733
aF5733
aF6733
aF7733
aF8733
aF9733
aa(lp103
F10000
aa(lp104
F10000
aa(lp105
F10000
aa(lp106
F10000
aa(lp107
F905
aF1905
aF2905
aF3905
aF4905
aF5905
aF6905
aF7905
aF8905
aF9905
aa(lp108
F919
aF1919
aF2919
aF3919
aF4919
aF5919
aF6919
aF7919
aF8919
aF9919
aa(lp109
F10000
aa(lp110
F10000
aa(lp111
F10000
aa(lp112
F10000
aa(lp113
F10000
aa(lp114
F10000
aa(lp115
F10000
aa(lp116
F10000
aa(lp117
F10000
aa(lp118
F10000
aa(lp119
F10000
aa(lp120
F10000
aa(lp121
F10000
aa(lp122
F10000
aa(lp123
F10000
aa(lp124
F10000
aa(lp125
F10000
aaa(lp126
(lp127
F10000
aa(lp128
F10000
aa(lp129
F10000
aa(lp130
F10000
aa(lp131
F693
aF1693
aF2693
aF3693
aF4693
aF5693
aF6693
aF7693
aF8693
aF9693
aa(lp132
F697
aF1697
aF2697
aF3697
aF4697
aF5697
aF6697
aF7697
aF8697
aF9697
aa(lp133
F10000
aa(lp134
F10000
aa(lp135
F10000
aa(lp136
F10000
aa(lp137
F10000
aa(lp138
F10000
aa(lp139
F10000
aa(lp140
F952
aF1952
aF2952
aF3952
aF4952
aF5952
aF6952
aF7952
aF8952
aF9952
aa(lp141
F984
aF1984
aF2984
aF3984
aF4984
aF5984
aF6984
aF7984
aF8984
aF9984
aa(lp142
F10000
aa(lp143
F10000
aa(lp144
F10000
aa(lp145
F10000
aa(lp146
F10000
aa(lp147
F10000
aa(lp148
F10000
aa(lp149
F10000
aa(lp150
F10000
aa(lp151
F10000
aa(lp152
F10000
aa(lp153
F10000
aa(lp154
F10000
aa(lp155
F10000
aa(lp156
F10000
aaa(lp157
(lp158
F10000
aa(lp159
F10000
aa(lp160
F10000
aa(lp161
F10000
aa(lp162
F678
aF1678
aF2678
aF3678
aF4678
aF5678
aF6678
aF7678
aF8678
aF9678
aa(lp163
F10000
aa(lp164
F10000
aa(lp165
F10000
aa(lp166
F10000
aa(lp167
F10000
aa(lp168
F10000
aa(lp169
F10000
aa(lp170
F10000
aa(lp171
F10000
aa(lp172
F989
aF1000
aF1989
aF2000
aF2989
aF3000
aF3989
aF4000
aF4989
aF5000
aF5989
aF6000
aF6989
aF7000
aF7989
aF8000
aF8989
aF9000
aF9989
aa(lp173
F17
aF1017
aF2017
aF3017
aF4017
aF5017
aF6017
aF7017
aF8017
aF9017
aa(lp174
F10000
aa(lp175
F10000
aa(lp176
F10000
aa(lp177
F10000
aa(lp178
F10000
aa(lp179
F10000
aa(lp180
F10000
aa(lp181
F10000
aa(lp182
F10000
aa(lp183
F10000
aa(lp184
F10000
aa(lp185
F10000
aa(lp186
F10000
aa(lp187
F10000
aaa(lp188
(lp189
F10000
aa(lp190
F10000
aa(lp191
F10000
aa(lp192
F10000
aa(lp193
F666
aF1666
aF2666
aF3666
aF4666
aF5666
aF6666
aF7666
aF8666
aF9666
aa(lp194
F10000
aa(lp195
F10000
aa(lp196
F10000
aa(lp197
F10000
aa(lp198
F10000
aa(lp199
F10000
aa(lp200
F10000
aa(lp201
F10000
aa(lp202
F10000
aa(lp203
F10000
aa(lp204
F21
aF1021
aF2021
aF3021
aF4021
aF5021
aF6021
aF7021
aF8021
aF9021
aa(lp205
F49
aF1049
aF2049
aF3049
aF4049
aF5049
aF6049
aF7049
aF8049
aF9049
aa(lp206
F10000
aa(lp207
F10000
aa(lp208
F10000
aa(lp209
F10000
aa(lp210
F10000
aa(lp211
F10000
aa(lp212
F10000
aa(lp213
F10000
aa(lp214
F10000
aa(lp215
F10000
aa(lp216
F10000
aa(lp217
F10000
aa(lp218
F10000
aaa(lp219
(lp220
F10000
aa(lp221
F10000
aa(lp222
F10000
aa(lp223
F10000
aa(lp224
F655
aF1655
aF2655
aF3655
aF4655
aF5655
aF6655
aF7655
aF8655
aF9655
aa(lp225
F10000
aa(lp226
F10000
aa(lp227
F10000
aa(lp228
F10000
aa(lp229
F10000
aa(lp230
F10000
aa(lp231
F10000
aa(lp232
F10000
aa(lp233
F10000
aa(lp234
F10000
aa(lp235
F10000
aa(lp236
F50
aF1050
aF2050
aF3050
aF4050
aF5050
aF6050
aF7050
aF8050
aF9050
aa(lp237
F10000
aa(lp238
F10000
aa(lp239
F10000
aa(lp240
F10000
aa(lp241
F10000
aa(lp242
F10000
aa(lp243
F10000
aa(lp244
F10000
aa(lp245
F10000
aa(lp246
F10000
aa(lp247
F10000
aa(lp248
F10000
aa(lp249
F10000
aaa(lp250
(lp251
F10000
aa(lp252
F10000
aa(lp253
F10000
aa(lp254
F10000
aa(lp255
F646
aF1646
aF2646
aF3646
aF4646
aF5646
aF6646
aF7646
aF8646
aF9646
aa(lp256
F10000
aa(lp257
F10000
aa(lp258
F10000
aa(lp259
F10000
aa(lp260
F10000
aa(lp261
F10000
aa(lp262
F10000
aa(lp263
F10000
aa(lp264
F10000
aa(lp265
F10000
aa(lp266
F10000
aa(lp267
F75
aF1075
aF2075
aF3075
aF4075
aF5075
aF6075
aF7075
aF8075
aF9075
aa(lp268
F82
aF1082
aF2082
aF3082
aF4082
aF5082
aF6082
aF7082
aF8082
aF9082
aa(lp269
F10000
aa(lp270
F10000
aa(lp271
F10000
aa(lp272
F10000
aa(lp273
F10000
aa(lp274
F10000
aa(lp275
F10000
aa(lp276
F10000
aa(lp277
F10000
aa(lp278
F10000
aa(lp279
F10000
aa(lp280
F10000
aaa(lp281
(lp282
F10000
aa(lp283
F10000
aa(lp284
F10000
aa(lp285
F10000
aa(lp286
F637
aF1637
aF2637
aF3637
aF4637
aF5637
aF6637
aF7637
aF8637
aF9637
aa(lp287
F10000
aa(lp288
F10000
aa(lp289
F10000
aa(lp290
F10000
aa(lp291
F10000
aa(lp292
F10000
aa(lp293
F10000
aa(lp294
F10000
aa(lp295
F10000
aa(lp296
F10000
aa(lp297
F10000
aa(lp298
F10000
aa(lp299
F99
aF1099
aF2099
aF3099
aF4099
aF5099
aF6099
aF7099
aF8099
aF9099
aa(lp300
F114
aF1114
aF2114
aF3114
aF4114
aF5114
aF6114
aF7114
aF8114
aF9114
aa(lp301
F10000
aa(lp302
F10000
aa(lp303
F10000
aa(lp304
F10000
aa(lp305
F10000
aa(lp306
F10000
aa(lp307
F10000
aa(lp308
F10000
aa(lp309
F10000
aa(lp310
F10000
aa(lp311
F10000
aaa(lp312
(lp313
F10000
aa(lp314
F10000
aa(lp315
F10000
aa(lp316
F10000
aa(lp317
F630
aF1630
aF2630
aF3630
aF4630
aF5630
aF6630
aF7630
aF8630
aF9630
aa(lp318
F10000
aa(lp319
F10000
aa(lp320
F10000
aa(lp321
F10000
aa(lp322
F10000
aa(lp323
F10000
aa(lp324
F10000
aa(lp325
F10000
aa(lp326
F10000
aa(lp327
F10000
aa(lp328
F10000
aa(lp329
F10000
aa(lp330
F10000
aa(lp331
F120
aF1120
aF2120
aF3120
aF4120
aF5120
aF6120
aF7120
aF8120
aF9120
aa(lp332
F10000
aa(lp333
F10000
aa(lp334
F10000
aa(lp335
F10000
aa(lp336
F10000
aa(lp337
F10000
aa(lp338
F10000
aa(lp339
F10000
aa(lp340
F10000
aa(lp341
F10000
aa(lp342
F10000
aaa(lp343
(lp344
F10000
aa(lp345
F10000
aa(lp346
F10000
aa(lp347
F10000
aa(lp348
F622
aF1622
aF2622
aF3622
aF4622
aF5622
aF6622
aF7622
aF8622
aF9622
aa(lp349
F10000
aa(lp350
F10000
aa(lp351
F10000
aa(lp352
F10000
aa(lp353
F10000
aa(lp354
F10000
aa(lp355
F10000
aa(lp356
F10000
aa(lp357
F10000
aa(lp358
F10000
aa(lp359
F10000
aa(lp360
F10000
aa(lp361
F10000
aa(lp362
F139
aF1139
aF2139
aF3139
aF4139
aF5139
aF6139
aF7139
aF8139
aF9139
aa(lp363
F145
aF1145
aF2145
aF3145
aF4145
aF5145
aF6145
aF7145
aF8145
aF9145
aa(lp364
F10000
aa(lp365
F10000
aa(lp366
F10000
aa(lp367
F10000
aa(lp368
F10000
aa(lp369
F10000
aa(lp370
F10000
aa(lp371
F10000
aa(lp372
F10000
aa(lp373
F10000
aaa(lp374
(lp375
F10000
aa(lp376
F10000
aa(lp377
F10000
aa(lp378
F10000
aa(lp379
F616
aF1616
aF2616
aF3616
aF4616
aF5616
aF6616
aF7616
aF8616
aF9616
aa(lp380
F10000
aa(lp381
F10000
aa(lp382
F10000
aa(lp383
F10000
aa(lp384
F10000
aa(lp385
F10000
aa(lp386
F10000
aa(lp387
F10000
aa(lp388
F10000
aa(lp389
F10000
aa(lp390
F10000
aa(lp391
F10000
aa(lp392
F10000
aa(lp393
F10000
aa(lp394
F157
aF1157
aF2157
aF3157
aF4157
aF5157
aF6157
aF7157
aF8157
aF9157
aa(lp395
F10000
aa(lp396
F10000
aa(lp397
F10000
aa(lp398
F10000
aa(lp399
F10000
aa(lp400
F10000
aa(lp401
F10000
aa(lp402
F10000
aa(lp403
F10000
aa(lp404
F10000
aaa(lp405
(lp406
F10000
aa(lp407
F10000
aa(lp408
F10000
aa(lp409
F10000
aa(lp410
F609
aF1609
aF2609
aF3609
aF4609
aF5609
aF6609
aF7609
aF8609
aF9609
aa(lp411
F10000
aa(lp412
F10000
aa(lp413
F10000
aa(lp414
F10000
aa(lp415
F10000
aa(lp416
F10000
aa(lp417
F10000
aa(lp418
F10000
aa(lp419
F10000
aa(lp420
F10000
aa(lp421
F10000
aa(lp422
F10000
aa(lp423
F10000
aa(lp424
F10000
aa(lp425
F174
aF1174
aF2174
aF3174
aF4174
aF5174
aF6174
aF7174
aF8174
aF9174
aa(lp426
F176
aF1176
aF2176
aF3176
aF4176
aF5176
aF6176
aF7176
aF8176
aF9176
aa(lp427
F10000
aa(lp428
F10000
aa(lp429
F10000
aa(lp430
F10000
aa(lp431
F10000
aa(lp432
F10000
aa(lp433
F10000
aa(lp434
F10000
aa(lp435
F10000
aaa(lp436
(lp437
F10000
aa(lp438
F10000
aa(lp439
F10000
aa(lp440
F10000
aa(lp441
F603
aF1603
aF2603
aF3603
aF4603
aF5603
aF6603
aF7603
aF8603
aF9603
aa(lp442
F10000
aa(lp443
F10000
aa(lp444
F10000
aa(lp445
F10000
aa(lp446
F10000
aa(lp447
F10000
aa(lp448
F10000
aa(lp449
F10000
aa(lp450
F10000
aa(lp451
F10000
aa(lp452
F10000
aa(lp453
F10000
aa(lp454
F10000
aa(lp455
F10000
aa(lp456
F10000
aa(lp457
F190
aF1190
aF2190
aF3190
aF4190
aF5190
aF6190
aF7190
aF8190
aF9190
aa(lp458
F10000
aa(lp459
F10000
aa(lp460
F10000
aa(lp461
F10000
aa(lp462
F10000
aa(lp463
F10000
aa(lp464
F10000
aa(lp465
F10000
aa(lp466
F10000
aaa(lp467
(lp468
F10000
aa(lp469
F10000
aa(lp470
F10000
aa(lp471
F10000
aa(lp472
F597
aF1597
aF2597
aF3597
aF4597
aF5597
aF6597
aF7597
aF8597
aF9597
aa(lp473
F10000
aa(lp474
F10000
aa(lp475
F10000
aa(lp476
F10000
aa(lp477
F10000
aa(lp478
F10000
aa(lp479
F10000
aa(lp480
F10000
aa(lp481
F10000
aa(lp482
F10000
aa(lp483
F10000
aa(lp484
F10000
aa(lp485
F10000
aa(lp486
F10000
aa(lp487
F10000
aa(lp488
F205
aF1205
aF2205
aF3205
aF4205
aF5205
aF6205
aF7205
aF8205
aF9205
aa(lp489
F206
aF1206
aF2206
aF3206
aF4206
aF5206
aF6206
aF7206
aF8206
aF9206
aa(lp490
F10000
aa(lp491
F10000
aa(lp492
F10000
aa(lp493
F10000
aa(lp494
F10000
aa(lp495
F10000
aa(lp496
F10000
aa(lp497
F10000
aaa(lp498
(lp499
F10000
aa(lp500
F10000
aa(lp501
F10000
aa(lp502
F10000
aa(lp503
F10000
aa(lp504
F592
aF1592
aF2592
aF3592
aF4592
aF5592
aF6592
aF7592
aF8592
aF9592
aa(lp505
F10000
aa(lp506
F10000
aa(lp507
F10000
aa(lp508
F10000
aa(lp509
F10000
aa(lp510
F10000
aa(lp511
F10000
aa(lp512
F10000
aa(lp513
F10000
aa(lp514
F10000
aa(lp515
F10000
aa(lp516
F10000
aa(lp517
F10000
aa(lp518
F10000
aa(lp519
F10000
aa(lp520
F218
aF1218
aF2218
aF3218
aF4218
aF5218
aF6218
aF7218
aF8218
aF9218
aa(lp521
F10000
aa(lp522
F10000
aa(lp523
F10000
aa(lp524
F10000
aa(lp525
F10000
aa(lp526
F10000
aa(lp527
F10000
aa(lp528
F10000
aaa(lp529
(lp530
F10000
aa(lp531
F10000
aa(lp532
F10000
aa(lp533
F10000
aa(lp534
F10000
aa(lp535
F587
aF1587
aF2587
aF3587
aF4587
aF5587
aF6587
aF7587
aF8587
aF9587
aa(lp536
F10000
aa(lp537
F10000
aa(lp538
F10000
aa(lp539
F10000
aa(lp540
F10000
aa(lp541
F10000
aa(lp542
F10000
aa(lp543
F10000
aa(lp544
F10000
aa(lp545
F10000
aa(lp546
F10000
aa(lp547
F10000
aa(lp548
F10000
aa(lp549
F10000
aa(lp550
F10000
aa(lp551
F231
aF1231
aF2231
aF3231
aF4231
aF5231
aF6231
aF7231
aF8231
aF9231
aa(lp552
F236
aF1236
aF2236
aF3236
aF4236
aF5236
aF6236
aF7236
aF8236
aF9236
aa(lp553
F10000
aa(lp554
F10000
aa(lp555
F10000
aa(lp556
F10000
aa(lp557
F10000
aa(lp558
F10000
aa(lp559
F10000
aaa(lp560
(lp561
F10000
aa(lp562
F10000
aa(lp563
F10000
aa(lp564
F10000
aa(lp565
F10000
aa(lp566
F581
aF1581
aF2581
aF3581
aF4581
aF5581
aF6581
aF7581
aF8581
aF9581
aa(lp567
F10000
aa(lp568
F10000
aa(lp569
F10000
aa(lp570
F10000
aa(lp571
F10000
aa(lp572
F10000
aa(lp573
F10000
aa(lp574
F10000
aa(lp575
F10000
aa(lp576
F10000
aa(lp577
F10000
aa(lp578
F10000
aa(lp579
F10000
aa(lp580
F10000
aa(lp581
F10000
aa(lp582
F10000
aa(lp583
F244
aF1244
aF2244
aF3244
aF4244
aF5244
aF6244
aF7244
aF8244
aF9244
aa(lp584
F10000
aa(lp585
F10000
aa(lp586
F10000
aa(lp587
F10000
aa(lp588
F10000
aa(lp589
F10000
aa(lp590
F10000
aaa(lp591
(lp592
F10000
aa(lp593
F10000
aa(lp594
F10000
aa(lp595
F10000
aa(lp596
F10000
aa(lp597
F578
aF1578
aF2578
aF3578
aF4578
aF5578
aF6578
aF7578
aF8578
aF9578
aa(lp598
F576
aF1576
aF2576
aF3576
aF4576
aF5576
aF6576
aF7576
aF8576
aF9576
aa(lp599
F10000
aa(lp600
F10000
aa(lp601
F10000
aa(lp602
F10000
aa(lp603
F10000
aa(lp604
F10000
aa(lp605
F10000
aa(lp606
F10000
aa(lp607
F10000
aa(lp608
F10000
aa(lp609
F10000
aa(lp610
F10000
aa(lp611
F10000
aa(lp612
F10000
aa(lp613
F10000
aa(lp614
F255
aF1255
aF2255
aF3255
aF4255
aF5255
aF6255
aF7255
aF8255
aF9255
aa(lp615
F10000
aa(lp616
F10000
aa(lp617
F10000
aa(lp618
F10000
aa(lp619
F10000
aa(lp620
F10000
aa(lp621
F10000
aaa(lp622
(lp623
F10000
aa(lp624
F10000
aa(lp625
F10000
aa(lp626
F10000
aa(lp627
F10000
aa(lp628
F10000
aa(lp629
F571
aF1571
aF2571
aF3571
aF4571
aF5571
aF6571
aF7571
aF8571
aF9571
aa(lp630
F10000
aa(lp631
F10000
aa(lp632
F10000
aa(lp633
F10000
aa(lp634
F10000
aa(lp635
F10000
aa(lp636
F10000
aa(lp637
F10000
aa(lp638
F10000
aa(lp639
F10000
aa(lp640
F10000
aa(lp641
F10000
aa(lp642
F10000
aa(lp643
F10000
aa(lp644
F10000
aa(lp645
F266
aF1266
aF2266
aF3266
aF4266
aF5266
aF6266
aF7266
aF8266
aF9266
aa(lp646
F268
aF1268
aF2268
aF3268
aF4268
aF5268
aF6268
aF7268
aF8268
aF9268
aa(lp647
F10000
aa(lp648
F10000
aa(lp649
F10000
aa(lp650
F10000
aa(lp651
F10000
aa(lp652
F10000
aaa(lp653
(lp654
F10000
aa(lp655
F10000
aa(lp656
F10000
aa(lp657
F10000
aa(lp658
F10000
aa(lp659
F10000
aa(lp660
F566
aF1566
aF2566
aF3566
aF4566
aF5566
aF6566
aF7566
aF8566
aF9566
aa(lp661
F10000
aa(lp662
F10000
aa(lp663
F10000
aa(lp664
F10000
aa(lp665
F10000
aa(lp666
F10000
aa(lp667
F10000
aa(lp668
F10000
aa(lp669
F10000
aa(lp670
F10000
aa(lp671
F10000
aa(lp672
F10000
aa(lp673
F10000
aa(lp674
F10000
aa(lp675
F10000
aa(lp676
F10000
aa(lp677
F277
aF1277
aF2277
aF3277
aF4277
aF5277
aF6277
aF7277
aF8277
aF9277
aa(lp678
F10000
aa(lp679
F10000
aa(lp680
F10000
aa(lp681
F10000
aa(lp682
F10000
aa(lp683
F10000
aaa(lp684
(lp685
F10000
aa(lp686
F10000
aa(lp687
F10000
aa(lp688
F10000
aa(lp689
F10000
aa(lp690
F10000
aa(lp691
F564
aF1564
aF2564
aF3564
aF4564
aF5564
aF6564
aF7564
aF8564
aF9564
aa(lp692
F562
aF1562
aF2562
aF3562
aF4562
aF5562
aF6562
aF7562
aF8562
aF9562
aa(lp693
F10000
aa(lp694
F10000
aa(lp695
F10000
aa(lp696
F10000
aa(lp697
F10000
aa(lp698
F10000
aa(lp699
F10000
aa(lp700
F10000
aa(lp701
F10000
aa(lp702
F10000
aa(lp703
F10000
aa(lp704
F10000
aa(lp705
F10000
aa(lp706
F10000
aa(lp707
F10000
aa(lp708
F287
aF1287
aF2287
aF3287
aF4287
aF5287
aF6287
aF7287
aF8287
aF9287
aa(lp709
F10000
aa(lp710
F10000
aa(lp711
F10000
aa(lp712
F10000
aa(lp713
F10000
aa(lp714
F10000
aaa(lp715
(lp716
F10000
aa(lp717
F10000
aa(lp718
F10000
aa(lp719
F10000
aa(lp720
F10000
aa(lp721
F10000
aa(lp722
F10000
aa(lp723
F557
aF1557
aF2557
aF3557
aF4557
aF5557
aF6557
aF7557
aF8557
aF9557
aa(lp724
F10000
aa(lp725
F10000
aa(lp726
F10000
aa(lp727
F10000
aa(lp728
F10000
aa(lp729
F10000
aa(lp730
F10000
aa(lp731
F10000
aa(lp732
F10000
aa(lp733
F10000
aa(lp734
F10000
aa(lp735
F10000
aa(lp736
F10000
aa(lp737
F10000
aa(lp738
F10000
aa(lp739
F297
aF1297
aF2297
aF3297
aF4297
aF5297
aF6297
aF7297
aF8297
aF9297
aa(lp740
F304
aF1304
aF2304
aF3304
aF4304
aF5304
aF6304
aF7304
aF8304
aF9304
aa(lp741
F10000
aa(lp742
F10000
aa(lp743
F10000
aa(lp744
F10000
aa(lp745
F10000
aaa(lp746
(lp747
F10000
aa(lp748
F10000
aa(lp749
F10000
aa(lp750
F10000
aa(lp751
F10000
aa(lp752
F10000
aa(lp753
F10000
aa(lp754
F553
aF1553
aF2553
aF3553
aF4553
aF5553
aF6553
aF7553
aF8553
aF9553
aa(lp755
F552
aF1552
aF2552
aF3552
aF4552
aF5552
aF6552
aF7552
aF8552
aF9552
aa(lp756
F10000
aa(lp757
F10000
aa(lp758
F10000
aa(lp759
F10000
aa(lp760
F10000
aa(lp761
F10000
aa(lp762
F10000
aa(lp763
F10000
aa(lp764
F10000
aa(lp765
F10000
aa(lp766
F10000
aa(lp767
F10000
aa(lp768
F10000
aa(lp769
F10000
aa(lp770
F10000
aa(lp771
F306
aF1306
aF2306
aF3306
aF4306
aF5306
aF6306
aF7306
aF8306
aF9306
aa(lp772
F10000
aa(lp773
F10000
aa(lp774
F10000
aa(lp775
F10000
aa(lp776
F10000
aaa(lp777
(lp778
F10000
aa(lp779
F10000
aa(lp780
F10000
aa(lp781
F10000
aa(lp782
F10000
aa(lp783
F10000
aa(lp784
F10000
aa(lp785
F10000
aa(lp786
F547
aF1547
aF2547
aF3547
aF4547
aF5547
aF6547
aF7547
aF8547
aF9547
aa(lp787
F10000
aa(lp788
F10000
aa(lp789
F10000
aa(lp790
F10000
aa(lp791
F10000
aa(lp792
F10000
aa(lp793
F10000
aa(lp794
F10000
aa(lp795
F10000
aa(lp796
F10000
aa(lp797
F10000
aa(lp798
F10000
aa(lp799
F10000
aa(lp800
F10000
aa(lp801
F10000
aa(lp802
F315
aF1315
aF2315
aF3315
aF4315
aF5315
aF6315
aF7315
aF8315
aF9315
aa(lp803
F10000
aa(lp804
F10000
aa(lp805
F10000
aa(lp806
F10000
aa(lp807
F10000
aaa(lp808
(lp809
F10000
aa(lp810
F10000
aa(lp811
F10000
aa(lp812
F10000
aa(lp813
F10000
aa(lp814
F10000
aa(lp815
F10000
aa(lp816
F10000
aa(lp817
F544
aF1544
aF2544
aF3544
aF4544
aF5544
aF6544
aF7544
aF8544
aF9544
aa(lp818
F542
aF1542
aF2542
aF3542
aF4542
aF5542
aF6542
aF7542
aF8542
aF9542
aa(lp819
F10000
aa(lp820
F10000
aa(lp821
F10000
aa(lp822
F10000
aa(lp823
F10000
aa(lp824
F10000
aa(lp825
F10000
aa(lp826
F10000
aa(lp827
F10000
aa(lp828
F10000
aa(lp829
F10000
aa(lp830
F10000
aa(lp831
F10000
aa(lp832
F10000
aa(lp833
F324
aF1324
aF2324
aF3324
aF4324
aF5324
aF6324
aF7324
aF8324
aF9324
aa(lp834
F10000
aa(lp835
F10000
aa(lp836
F10000
aa(lp837
F10000
aa(lp838
F10000
aaa(lp839
(lp840
F10000
aa(lp841
F10000
aa(lp842
F10000
aa(lp843
F10000
aa(lp844
F10000
aa(lp845
F10000
aa(lp846
F10000
aa(lp847
F10000
aa(lp848
F10000
aa(lp849
F538
aF1538
aF2538
aF3538
aF4538
aF5538
aF6538
aF7538
aF8538
aF9538
aa(lp850
F10000
aa(lp851
F10000
aa(lp852
F10000
aa(lp853
F10000
aa(lp854
F10000
aa(lp855
F10000
aa(lp856
F10000
aa(lp857
F10000
aa(lp858
F10000
aa(lp859
F10000
aa(lp860
F10000
aa(lp861
F10000
aa(lp862
F10000
aa(lp863
F10000
aa(lp864
F333
aF1333
aF2333
aF3333
aF4333
aF5333
aF6333
aF7333
aF8333
aF9333
aa(lp865
F10000
aa(lp866
F10000
aa(lp867
F10000
aa(lp868
F10000
aa(lp869
F10000
aaa(lp870
(lp871
F10000
aa(lp872
F10000
aa(lp873
F10000
aa(lp874
F10000
aa(lp875
F10000
aa(lp876
F10000
aa(lp877
F10000
aa(lp878
F10000
aa(lp879
F10000
aa(lp880
F535
aF1535
aF2535
aF3535
aF4535
aF5535
aF6535
aF7535
aF8535
aF9535
aa(lp881
F533
aF1533
aF2533
aF3533
aF4533
aF5533
aF6533
aF7533
aF8533
aF9533
aa(lp882
F10000
aa(lp883
F10000
aa(lp884
F10000
aa(lp885
F10000
aa(lp886
F10000
aa(lp887
F10000
aa(lp888
F10000
aa(lp889
F10000
aa(lp890
F10000
aa(lp891
F10000
aa(lp892
F10000
aa(lp893
F10000
aa(lp894
F10000
aa(lp895
F341
aF1341
aF2341
aF3341
aF4341
aF5341
aF6341
aF7341
aF8341
aF9341
aa(lp896
F10000
aa(lp897
F10000
aa(lp898
F10000
aa(lp899
F10000
aa(lp900
F10000
aaa(lp901
(lp902
F10000
aa(lp903
F10000
aa(lp904
F10000
aa(lp905
F10000
aa(lp906
F10000
aa(lp907
F10000
aa(lp908
F10000
aa(lp909
F10000
aa(lp910
F10000
aa(lp911
F10000
aa(lp912
F527
aF1527
aF2527
aF3527
aF4527
aF5527
aF6527
aF7527
aF8527
aF9527
aa(lp913
F10000
aa(lp914
F10000
aa(lp915
F10000
aa(lp916
F10000
aa(lp917
F10000
aa(lp918
F10000
aa(lp919
F10000
aa(lp920
F10000
aa(lp921
F10000
aa(lp922
F10000
aa(lp923
F10000
aa(lp924
F10000
aa(lp925
F10000
aa(lp926
F350
aF1350
aF2350
aF3350
aF4350
aF5350
aF6350
aF7350
aF8350
aF9350
aa(lp927
F10000
aa(lp928
F10000
aa(lp929
F10000
aa(lp930
F10000
aa(lp931
F10000
aaa(lp932
(lp933
F10000
aa(lp934
F10000
aa(lp935
F10000
aa(lp936
F10000
aa(lp937
F10000
aa(lp938
F10000
aa(lp939
F10000
aa(lp940
F10000
aa(lp941
F10000
aa(lp942
F10000
aa(lp943
F10000
aa(lp944
F522
aF1522
aF2522
aF3522
aF4522
aF5522
aF6522
aF7522
aF8522
aF9522
aa(lp945
F10000
aa(lp946
F10000
aa(lp947
F10000
aa(lp948
F10000
aa(lp949
F10000
aa(lp950
F10000
aa(lp951
F10000
aa(lp952
F10000
aa(lp953
F10000
aa(lp954
F10000
aa(lp955
F10000
aa(lp956
F10000
aa(lp957
F358
aF1358
aF2358
aF3358
aF4358
aF5358
aF6358
aF7358
aF8358
aF9358
aa(lp958
F10000
aa(lp959
F10000
aa(lp960
F10000
aa(lp961
F10000
aa(lp962
F10000
aaa(lp963
(lp964
F10000
aa(lp965
F10000
aa(lp966
F10000
aa(lp967
F10000
aa(lp968
F10000
aa(lp969
F10000
aa(lp970
F10000
aa(lp971
F10000
aa(lp972
F10000
aa(lp973
F10000
aa(lp974
F10000
aa(lp975
F519
aF1519
aF2519
aF3519
aF4519
aF5519
aF6519
aF7519
aF8519
aF9519
aa(lp976
F516
aF1516
aF2516
aF3516
aF4516
aF5516
aF6516
aF7516
aF8516
aF9516
aa(lp977
F10000
aa(lp978
F10000
aa(lp979
F10000
aa(lp980
F10000
aa(lp981
F10000
aa(lp982
F10000
aa(lp983
F10000
aa(lp984
F10000
aa(lp985
F10000
aa(lp986
F10000
aa(lp987
F10000
aa(lp988
F367
aF1367
aF2367
aF3367
aF4367
aF5367
aF6367
aF7367
aF8367
aF9367
aa(lp989
F10000
aa(lp990
F10000
aa(lp991
F10000
aa(lp992
F10000
aa(lp993
F10000
aaa(lp994
(lp995
F10000
aa(lp996
F10000
aa(lp997
F10000
aa(lp998
F10000
aa(lp999
F10000
aa(lp1000
F10000
aa(lp1001
F10000
aa(lp1002
F10000
aa(lp1003
F10000
aa(lp1004
F10000
aa(lp1005
F10000
aa(lp1006
F10000
aa(lp1007
F511
aF1511
aF2511
aF3511
aF4511
aF5511
aF6511
aF7511
aF8511
aF9511
aa(lp1008
F10000
aa(lp1009
F10000
aa(lp1010
F10000
aa(lp1011
F10000
aa(lp1012
F10000
aa(lp1013
F10000
aa(lp1014
F10000
aa(lp1015
F10000
aa(lp1016
F10000
aa(lp1017
F10000
aa(lp1018
F10000
aa(lp1019
F375
aF1375
aF2375
aF3375
aF4375
aF5375
aF6375
aF7375
aF8375
aF9375
aa(lp1020
F10000
aa(lp1021
F10000
aa(lp1022
F10000
aa(lp1023
F10000
aa(lp1024
F10000
aaa(lp1025
(lp1026
F10000
aa(lp1027
F10000
aa(lp1028
F10000
aa(lp1029
F10000
aa(lp1030
F10000
aa(lp1031
F10000
aa(lp1032
F10000
aa(lp1033
F10000
aa(lp1034
F10000
aa(lp1035
F10000
aa(lp1036
F10000
aa(lp1037
F10000
aa(lp1038
F10000
aa(lp1039
F504
aF1504
aF2504
aF3504
aF4504
aF5504
aF6504
aF7504
aF8504
aF9504
aa(lp1040
F10000
aa(lp1041
F10000
aa(lp1042
F10000
aa(lp1043
F10000
aa(lp1044
F10000
aa(lp1045
F10000
aa(lp1046
F10000
aa(lp1047
F10000
aa(lp1048
F10000
aa(lp1049
F10000
aa(lp1050
F384
aF1384
aF2384
aF3384
aF4384
aF5384
aF6384
aF7384
aF8384
aF9384
aa(lp1051
F10000
aa(lp1052
F10000
aa(lp1053
F10000
aa(lp1054
F10000
aa(lp1055
F10000
aaa(lp1056
(lp1057
F10000
aa(lp1058
F10000
aa(lp1059
F10000
aa(lp1060
F10000
aa(lp1061
F10000
aa(lp1062
F10000
aa(lp1063
F10000
aa(lp1064
F10000
aa(lp1065
F10000
aa(lp1066
F10000
aa(lp1067
F10000
aa(lp1068
F10000
aa(lp1069
F10000
aa(lp1070
F10000
aa(lp1071
F497
aF1497
aF2497
aF3497
aF4497
aF5497
aF6497
aF7497
aF8497
aF9497
aa(lp1072
F10000
aa(lp1073
F10000
aa(lp1074
F10000
aa(lp1075
F10000
aa(lp1076
F10000
aa(lp1077
F10000
aa(lp1078
F10000
aa(lp1079
F10000
aa(lp1080
F10000
aa(lp1081
F393
aF1393
aF2393
aF3393
aF4393
aF5393
aF6393
aF7393
aF8393
aF9393
aa(lp1082
F10000
aa(lp1083
F10000
aa(lp1084
F10000
aa(lp1085
F10000
aa(lp1086
F10000
aaa(lp1087
(lp1088
F10000
aa(lp1089
F10000
aa(lp1090
F10000
aa(lp1091
F10000
aa(lp1092
F10000
aa(lp1093
F10000
aa(lp1094
F10000
aa(lp1095
F10000
aa(lp1096
F10000
aa(lp1097
F10000
aa(lp1098
F10000
aa(lp1099
F10000
aa(lp1100
F10000
aa(lp1101
F10000
aa(lp1102
F10000
aa(lp1103
F490
aF1490
aF2490
aF3490
aF4490
aF5490
aF6490
aF7490
aF8490
aF9490
aa(lp1104
F488
aF1488
aF2488
aF3488
aF4488
aF5488
aF6488
aF7488
aF8488
aF9488
aa(lp1105
F10000
aa(lp1106
F10000
aa(lp1107
F10000
aa(lp1108
F10000
aa(lp1109
F10000
aa(lp1110
F10000
aa(lp1111
F404
aF1404
aF2404
aF3404
aF4404
aF5404
aF6404
aF7404
aF8404
aF9404
aa(lp1112
F403
aF1403
aF2403
aF3403
aF4403
aF5403
aF6403
aF7403
aF8403
aF9403
aa(lp1113
F10000
aa(lp1114
F10000
aa(lp1115
F10000
aa(lp1116
F10000
aa(lp1117
F10000
aaa(lp1118
(lp1119
F10000
aa(lp1120
F10000
aa(lp1121
F10000
aa(lp1122
F10000
aa(lp1123
F10000
aa(lp1124
F10000
aa(lp1125
F10000
aa(lp1126
F10000
aa(lp1127
F10000
aa(lp1128
F10000
aa(lp1129
F10000
aa(lp1130
F10000
aa(lp1131
F10000
aa(lp1132
F10000
aa(lp1133
F10000
aa(lp1134
F10000
aa(lp1135
F482
aF1482
aF2482
aF3482
aF4482
aF5482
aF6482
aF7482
aF8482
aF9482
aa(lp1136
F476
aF1476
aF2476
aF3476
aF4476
aF5476
aF6476
aF7476
aF8476
aF9476
aa(lp1137
F10000
aa(lp1138
F10000
aa(lp1139
F10000
aa(lp1140
F10000
aa(lp1141
F423
aF1423
aF2423
aF3423
aF4423
aF5423
aF6423
aF7423
aF8423
aF9423
aa(lp1142
F414
aF1414
aF2414
aF3414
aF4414
aF5414
aF6414
aF7414
aF8414
aF9414
aa(lp1143
F10000
aa(lp1144
F10000
aa(lp1145
F10000
aa(lp1146
F10000
aa(lp1147
F10000
aa(lp1148
F10000
aaa(lp1149
(lp1150
F10000
aa(lp1151
F10000
aa(lp1152
F10000
aa(lp1153
F10000
aa(lp1154
F10000
aa(lp1155
F10000
aa(lp1156
F10000
aa(lp1157
F10000
aa(lp1158
F10000
aa(lp1159
F10000
aa(lp1160
F10000
aa(lp1161
F10000
aa(lp1162
F10000
aa(lp1163
F10000
aa(lp1164
F10000
aa(lp1165
F10000
aa(lp1166
F10000
aa(lp1167
F474
aF1474
aF2474
aF3474
aF4474
aF5474
aF6474
aF7474
aF8474
aF9474
aa(lp1168
F466
aF1466
aF2466
aF3466
aF4466
aF5466
aF6466
aF7466
aF8466
aF9466
aa(lp1169
F457
aF1457
aF2457
aF3457
aF4457
aF5457
aF6457
aF7457
aF8457
aF9457
aa(lp1170
F448
aF1448
aF2448
aF3448
aF4448
aF5448
aF6448
aF7448
aF8448
aF9448
aa(lp1171
F437
aF1437
aF2437
aF3437
aF4437
aF5437
aF6437
aF7437
aF8437
aF9437
aa(lp1172
F428
aF1428
aF2428
aF3428
aF4428
aF5428
aF6428
aF7428
aF8428
aF9428
aa(lp1173
F10000
aa(lp1174
F10000
aa(lp1175
F10000
aa(lp1176
F10000
aa(lp1177
F10000
aa(lp1178
F10000
aa(lp1179
F10000
aaa(lp1180
(lp1181
F10000
aa(lp1182
F10000
aa(lp1183
F10000
aa(lp1184
F10000
aa(lp1185
F10000
aa(lp1186
F10000
aa(lp1187
F10000
aa(lp1188
F10000
aa(lp1189
F10000
aa(lp1190
F10000
aa(lp1191
F10000
aa(lp1192
F10000
aa(lp1193
F10000
aa(lp1194
F10000
aa(lp1195
F10000
aa(lp1196
F10000
aa(lp1197
F10000
aa(lp1198
F10000
aa(lp1199
F10000
aa(lp1200
F10000
aa(lp1201
F10000
aa(lp1202
F10000
aa(lp1203
F10000
aa(lp1204
F10000
aa(lp1205
F10000
aa(lp1206
F10000
aa(lp1207
F10000
aa(lp1208
F10000
aa(lp1209
F10000
aa(lp1210
F10000
aaa(lp1211
(lp1212
F10000
aa(lp1213
F10000
aa(lp1214
F10000
aa(lp1215
F10000
aa(lp1216
F10000
aa(lp1217
F10000
aa(lp1218
F10000
aa(lp1219
F10000
aa(lp1220
F10000
aa(lp1221
F10000
aa(lp1222
F10000
aa(lp1223
F10000
aa(lp1224
F10000
aa(lp1225
F10000
aa(lp1226
F10000
aa(lp1227
F10000
aa(lp1228
F10000
aa(lp1229
F10000
aa(lp1230
F10000
aa(lp1231
F10000
aa(lp1232
F10000
aa(lp1233
F10000
aa(lp1234
F10000
aa(lp1235
F10000
aa(lp1236
F10000
aa(lp1237
F10000
aa(lp1238
F10000
aa(lp1239
F10000
aa(lp1240
F10000
aa(lp1241
F10000
aaa.