(lp1
(lp2
(lp3
F10000
aa(lp4
F10000
aa(lp5
F10000
aa(lp6
F10000
aa(lp7
F10000
aa(lp8
F10000
aa(lp9
F10000
aa(lp10
F10000
aa(lp11
F10000
aa(lp12
F10000
aa(lp13
F10000
aa(lp14
F10000
aa(lp15
F10000
aa(lp16
F10000
aa(lp17
F10000
aa(lp18
F10000
aa(lp19
F10000
aa(lp20
F10000
aa(lp21
F10000
aa(lp22
F10000
aa(lp23
F10000
aa(lp24
F8593.7839999999997
aa(lp25
F7836.1750000000002
aa(lp26
F10000
aa(lp27
F10000
aa(lp28
F10000
aa(lp29
F10000
aa(lp30
F10000
aa(lp31
F10000
aa(lp32
F10000
aa(lp33
F10000
aa(lp34
F10000
aa(lp35
F10000
aa(lp36
F10000
aa(lp37
F10000
aa(lp38
F10000
aa(lp39
F10000
aa(lp40
F2770.3200000000002
aF9614.5040000000008
aa(lp41
F10000
aa(lp42
F10000
aa(lp43
F3521.9639999999999
aF3802.2750000000001
aa(lp44
F3479.203
aF3515.0830000000001
aF3670.366
aa(lp45
F3339.2710000000002
aF3433.864
aF3671.2750000000001
aa(lp46
F3348.6309999999999
aF3741.087
aa(lp47
F3458.1819999999998
aF3481.4200000000001
aF3708.5419999999999
aF3786.2109999999998
aa(lp48
F3407.2890000000002
aF3423.29
aF3746.1599999999999
aF3778.614
aa(lp49
F3367.7199999999998
aF3492.7779999999998
aF3701.9949999999999
aF3805.3629999999998
aa(lp50
F3347.0210000000002
aF3471.2640000000001
aF3717.8339999999998
aF3783.7570000000001
aa(lp51
F3339.0030000000002
aF3558.3099999999999
aF3670.7800000000002
aF3792.9160000000002
aa(lp52
F3318.931
aF3337.6799999999998
aF3535.029
aF3651.5659999999998
aF3805.2139999999999
aa(lp53
F3323.7269999999999
aF3498.0799999999999
aF3691.1950000000002
aF3776.1509999999998
aa(lp54
F3313.0340000000001
aF3458.0120000000002
aF3627.6300000000001
aF3768.9050000000002
aF3846.9920000000002
aa(lp55
F2924.8739999999998
aF3294.8180000000002
aF3388.2779999999998
aF3415.636
aF3478.8899999999999
aF3509.2730000000001
aF3717.75
aa(lp56
F10000
aa(lp57
F3458.9989999999998
aF3721.3890000000001
aa(lp58
F3287.605
aF3759.8589999999999
aa(lp59
F10000
aa(lp60
F3301.3069999999998
aF3816.5500000000002
aa(lp61
F3315.2049999999999
aF3500.152
aa(lp62
F3784.8609999999999
aa(lp63
F3920.855
aa(lp64
F3535.587
aF3596.5
aF3746.0520000000001
aF3837.944
aF4100.9549999999999
aF4158.9170000000004
aa(lp65
F2956.721
aF3546.6950000000002
aF4072.7260000000001
aa(lp66
F3153.8789999999999
aF3570.5709999999999
aF3605.5749999999998
aF4121.1199999999999
aF7313.9250000000002
aa(lp67
F10000
aa(lp68
F5155.6499999999996
aa(lp69
F10000
aa(lp70
F10000
aa(lp71
F10000
aa(lp72
F10000
aa(lp73
F10000
aa(lp74
F10000
aa(lp75
F10000
aa(lp76
F10000
aa(lp77
F10000
aa(lp78
F10000
aa(lp79
F10000
aa(lp80
F10000
aa(lp81
F10000
aa(lp82
F10000
aa(lp83
F10000
aa(lp84
F10000
aa(lp85
F10000
aa(lp86
F8708.6319999999996
aa(lp87
F10000
aa(lp88
F10000
aa(lp89
F10000
aa(lp90
F10000
aa(lp91
F10000
aa(lp92
F10000
aa(lp93
F10000
aa(lp94
F10000
aa(lp95
F10000
aa(lp96
F10000
aa(lp97
F10000
aa(lp98
F10000
aa(lp99
F10000
aa(lp100
F10000
aa(lp101
F10000
aa(lp102
F10000
aa(lp103
F10000
aa(lp104
F10000
aa(lp105
F10000
aa(lp106
F10000
aa(lp107
F10000
aa(lp108
F6908.9300000000003
aa(lp109
F3132.5030000000002
aa(lp110
F10000
aa(lp111
F10000
aa(lp112
F10000
aa(lp113
F10000
aa(lp114
F10000
aa(lp115
F10000
aa(lp116
F10000
aa(lp117
F10000
aa(lp118
F10000
aa(lp119
F9117.4639999999999
aa(lp120
F10000
aa(lp121
F10000
aa(lp122
F10000
aaa(lp123
(lp124
F10000
aa(lp125
F10000
aa(lp126
F10000
aa(lp127
F10000
aa(lp128
F10000
aa(lp129
F10000
aa(lp130
F10000
aa(lp131
F10000
aa(lp132
F10000
aa(lp133
F10000
aa(lp134
F10000
aa(lp135
F10000
aa(lp136
F10000
aa(lp137
F10000
aa(lp138
F10000
aa(lp139
F10000
aa(lp140
F10000
aa(lp141
F10000
aa(lp142
F10000
aa(lp143
F10000
aa(lp144
F10000
aa(lp145
F7735.7120000000004
aa(lp146
F10000
aa(lp147
F10000
aa(lp148
F10000
aa(lp149
F10000
aa(lp150
F10000
aa(lp151
F10000
aa(lp152
F10000
aa(lp153
F10000
aa(lp154
F10000
aa(lp155
F10000
aa(lp156
F10000
aa(lp157
F10000
aa(lp158
F10000
aa(lp159
F10000
aa(lp160
F10000
aa(lp161
F10000
aa(lp162
F8841.9459999999999
aa(lp163
F10000
aa(lp164
F3639.8719999999998
aF5425.7849999999999
aa(lp165
F3587.3040000000001
aF3657.6889999999999
aF3796.018
aF3923.02
aa(lp166
F3444.25
aF3543.6590000000001
aF3709.5749999999998
aF3765.5479999999998
aF4775.9750000000004
aF5260.5150000000003
aF5436.8090000000002
aF7313.7820000000002
aa(lp167
F10000
aa(lp168
F3393.857
aF3551.7130000000002
aF3567.5120000000002
aF3575.183
aF3586.4659999999999
aF3619.2109999999998
aF3810.5859999999998
aF3829.223
aF3897.7510000000002
aa(lp169
F3491.7730000000001
aF3515.0859999999998
aF3530.3989999999999
aF3637.183
aF3830.8319999999999
aF3868.1880000000001
aF3908.8679999999999
aa(lp170
F3446.6109999999999
aF3467.529
aF3597.1790000000001
aF3859.8609999999999
aF3890.6840000000002
aF3979.239
aa(lp171
F3455.5079999999998
aF3468.1640000000002
aF3551.4409999999998
aF3897.6799999999998
aF4037.2640000000001
aa(lp172
F3457.8910000000001
aF3630.634
aF3900.828
aa(lp173
F3418.8539999999998
aF3433.913
aF3450.248
aF3571.1729999999998
aF3667.9839999999999
aF3778.6689999999999
aF3893.6390000000001
aF3926.4369999999999
aF9824.473
aa(lp174
F3403.9609999999998
aF3422.8470000000002
aF3640.0749999999998
aF3721.116
aF3899.9630000000002
aF3999.982
aa(lp175
F3395.0859999999998
aF3445.0610000000001
aF3557.413
aF3811.2449999999999
aF3876.1779999999999
aF3896.4520000000002
aF4367.5129999999999
aa(lp176
F3383.5929999999998
aF3485.0830000000001
aF3593.4780000000001
aF3813.2249999999999
aF3922.7139999999999
aa(lp177
F3452.607
aF3574.7710000000002
aa(lp178
F1161.2429999999999
aa(lp179
F10000
aa(lp180
F10000
aa(lp181
F10000
aa(lp182
F3922.9400000000001
aF4049.4119999999998
aa(lp183
F3575.9400000000001
aa(lp184
F3000.9639999999999
aa(lp185
F3576.761
aF3603.9169999999999
aF4073.0680000000002
aF4198.7830000000004
aF4226.4040000000005
aa(lp186
F3592.8229999999999
aF3639.5810000000001
aF4037.9499999999998
aF4152.152
aa(lp187
F3124.9940000000001
aF3547.1489999999999
aF3596.9160000000002
aF3662.306
aF4630.2340000000004
aa(lp188
F10000
aa(lp189
F10000
aa(lp190
F10000
aa(lp191
F10000
aa(lp192
F10000
aa(lp193
F10000
aa(lp194
F10000
aa(lp195
F10000
aa(lp196
F10000
aa(lp197
F10000
aa(lp198
F10000
aa(lp199
F10000
aa(lp200
F10000
aa(lp201
F10000
aa(lp202
F10000
aa(lp203
F10000
aa(lp204
F10000
aa(lp205
F10000
aa(lp206
F10000
aa(lp207
F10000
aa(lp208
F10000
aa(lp209
F10000
aa(lp210
F10000
aa(lp211
F10000
aa(lp212
F10000
aa(lp213
F10000
aa(lp214
F10000
aa(lp215
F10000
aa(lp216
F10000
aa(lp217
F10000
aa(lp218
F10000
aa(lp219
F10000
aa(lp220
F10000
aa(lp221
F10000
aa(lp222
F10000
aa(lp223
F10000
aa(lp224
F7058.0600000000004
aa(lp225
F10000
aa(lp226
F10000
aa(lp227
F10000
aa(lp228
F10000
aa(lp229
F10000
aa(lp230
F10000
aa(lp231
F10000
aa(lp232
F10000
aa(lp233
F5871.0450000000001
aa(lp234
F10000
aa(lp235
F10000
aa(lp236
F10000
aa(lp237
F10000
aa(lp238
F10000
aa(lp239
F10000
aa(lp240
F9717.5380000000005
aa(lp241
F10000
aa(lp242
F10000
aa(lp243
F9921.8979999999992
aaa(lp244
(lp245
F10000
aa(lp246
F10000
aa(lp247
F10000
aa(lp248
F10000
aa(lp249
F10000
aa(lp250
F10000
aa(lp251
F10000
aa(lp252
F10000
aa(lp253
F10000
aa(lp254
F10000
aa(lp255
F10000
aa(lp256
F10000
aa(lp257
F10000
aa(lp258
F10000
aa(lp259
F10000
aa(lp260
F10000
aa(lp261
F10000
aa(lp262
F10000
aa(lp263
F10000
aa(lp264
F10000
aa(lp265
F10000
aa(lp266
F10000
aa(lp267
F10000
aa(lp268
F10000
aa(lp269
F10000
aa(lp270
F10000
aa(lp271
F10000
aa(lp272
F10000
aa(lp273
F10000
aa(lp274
F10000
aa(lp275
F10000
aa(lp276
F10000
aa(lp277
F2626.2829999999999
aF5552.4409999999998
aa(lp278
F10000
aa(lp279
F10000
aa(lp280
F10000
aa(lp281
F10000
aa(lp282
F10000
aa(lp283
F10000
aa(lp284
F10000
aa(lp285
F10000
aa(lp286
F3699.529
aF3843.2820000000002
aF3900.4430000000002
aF3942.2919999999999
aa(lp287
F3549.3000000000002
aF3647.4569999999999
aF3812.4169999999999
aF3922.4540000000002
aa(lp288
F10000
aa(lp289
F3697.1869999999999
aF3725.0929999999998
aF3925.6860000000001
aF3954.3429999999998
aF4047.9279999999999
aa(lp290
F3620.9630000000002
aF3643.0230000000001
aF3705.9470000000001
aF4028.7199999999998
aF4212.7439999999997
aa(lp291
F3571.6460000000002
aF3582.3699999999999
aF3620.663
aF3664.5839999999998
aF3703.4470000000001
aF3725.4050000000002
aF3914.145
aF4029.5340000000001
aF4085.3719999999998
aa(lp292
F3575.4769999999999
aF3924.7440000000001
aF4013.7530000000002
aF4047.942
aF4170.3999999999996
aa(lp293
F3553.6759999999999
aF3616.5790000000002
aF3780.105
aF3928.5309999999999
aF4071.9479999999999
aa(lp294
F3541.837
aF3562.6610000000001
aF3630.7710000000002
aF3730.924
aF3892.4400000000001
aF4014.4059999999999
aF4042.4189999999999
aa(lp295
F3550.8519999999999
aF3643.473
aF3715.2510000000002
aF3885.5520000000001
aF4014.1320000000001
aF4043.5250000000001
aa(lp296
F3555.6509999999998
aF3600.3290000000002
aF3644.6770000000001
aF3696.5100000000002
aF3825.1680000000001
aF3995.0650000000001
aF4091.4000000000001
aa(lp297
F3523.6289999999999
aF3573.134
aF3699.069
aF3865.7779999999998
aF3993.509
aa(lp298
F3499.9670000000001
aF3718.422
aa(lp299
F4548.9369999999999
aa(lp300
F10000
aa(lp301
F10000
aa(lp302
F3974.4299999999998
aF4062.2449999999999
aa(lp303
F3567.1460000000002
aF3703.8939999999998
aF4003.6500000000001
aF4154.6679999999997
aa(lp304
F10000
aa(lp305
F10000
aa(lp306
F3630.9549999999999
aF3642.3130000000001
aF4137.6149999999998
aF4240.1390000000001
aF6534.9709999999995
aa(lp307
F3607.3939999999998
aF3669.5810000000001
aF4120.7939999999999
aF4272.8239999999996
aa(lp308
F3556.4740000000002
aF3684.3499999999999
aa(lp309
F10000
aa(lp310
F10000
aa(lp311
F10000
aa(lp312
F10000
aa(lp313
F10000
aa(lp314
F10000
aa(lp315
F10000
aa(lp316
F10000
aa(lp317
F10000
aa(lp318
F10000
aa(lp319
F10000
aa(lp320
F10000
aa(lp321
F10000
aa(lp322
F10000
aa(lp323
F2746.7269999999999
aF4874.009
aF9394.5409999999993
aa(lp324
F10000
aa(lp325
F10000
aa(lp326
F10000
aa(lp327
F10000
aa(lp328
F10000
aa(lp329
F10000
aa(lp330
F10000
aa(lp331
F10000
aa(lp332
F10000
aa(lp333
F10000
aa(lp334
F10000
aa(lp335
F10000
aa(lp336
F10000
aa(lp337
F10000
aa(lp338
F10000
aa(lp339
F10000
aa(lp340
F10000
aa(lp341
F10000
aa(lp342
F10000
aa(lp343
F10000
aa(lp344
F10000
aa(lp345
F10000
aa(lp346
F10000
aa(lp347
F10000
aa(lp348
F10000
aa(lp349
F10000
aa(lp350
F10000
aa(lp351
F10000
aa(lp352
F10000
aa(lp353
F10000
aa(lp354
F10000
aa(lp355
F10000
aa(lp356
F10000
aa(lp357
F10000
aa(lp358
F10000
aa(lp359
F10000
aa(lp360
F2370.8829999999998
aa(lp361
F10000
aa(lp362
F10000
aa(lp363
F10000
aa(lp364
F10000
aaa(lp365
(lp366
F10000
aa(lp367
F10000
aa(lp368
F10000
aa(lp369
F10000
aa(lp370
F10000
aa(lp371
F10000
aa(lp372
F10000
aa(lp373
F10000
aa(lp374
F10000
aa(lp375
F10000
aa(lp376
F10000
aa(lp377
F10000
aa(lp378
F10000
aa(lp379
F10000
aa(lp380
F10000
aa(lp381
F10000
aa(lp382
F10000
aa(lp383
F10000
aa(lp384
F10000
aa(lp385
F10000
aa(lp386
F10000
aa(lp387
F10000
aa(lp388
F10000
aa(lp389
F10000
aa(lp390
F10000
aa(lp391
F10000
aa(lp392
F10000
aa(lp393
F10000
aa(lp394
F10000
aa(lp395
F10000
aa(lp396
F10000
aa(lp397
F10000
aa(lp398
F10000
aa(lp399
F10000
aa(lp400
F10000
aa(lp401
F10000
aa(lp402
F10000
aa(lp403
F10000
aa(lp404
F10000
aa(lp405
F3781.8449999999998
aa(lp406
F10000
aa(lp407
F3830.4009999999998
aF3939.355
aF4048.982
aF4073.7689999999998
aF4252.3100000000004
aa(lp408
F3792.8789999999999
aF3949.0410000000002
aF4048.2550000000001
aF4181.1540000000005
aa(lp409
F10000
aa(lp410
F3790.4180000000001
aF3819.7640000000001
aF3861.8049999999998
aF4068.5639999999999
aF4115.5280000000002
aF4136.1319999999996
aa(lp411
F3764.6640000000002
aF3783.3440000000001
aF4165.8959999999997
aF4204.3100000000004
aa(lp412
F3675.4259999999999
aF3710.2890000000002
aF3814.924
aF3837.2579999999998
aF3962.7339999999999
aF4173.723
aF4195.192
aF4233.2129999999997
aa(lp413
F3698.1579999999999
aF3873.9989999999998
aF4030.8429999999998
aF4165.7380000000003
aF4252.5010000000002
aa(lp414
F3728.3870000000002
aF3825.067
aF3895.2939999999999
aF4157.4650000000001
aF4198.1400000000003
aa(lp415
F3680.3180000000002
aF3742.3220000000001
aF3819.3299999999999
aF3872.5619999999999
aF3973.8000000000002
aF4152.25
aF4212.9949999999999
aa(lp416
F3670.7339999999999
aF3707.806
aF3825.1170000000002
aF3942.6610000000001
aF4195.7259999999997
aa(lp417
F3657.893
aF3676.4760000000001
aF3739.364
aF3816.3490000000002
aF3899.4879999999998
aF4158.4170000000004
aF4269.2039999999997
aa(lp418
F3624.4299999999998
aF3671.221
aF4146.7269999999999
aa(lp419
F3651.0770000000002
aF3807.1880000000001
aa(lp420
F10000
aa(lp421
F10000
aa(lp422
F10000
aa(lp423
F4047.989
aF4168.1459999999997
aa(lp424
F3666.6320000000001
aF3854.4690000000001
aF4108.8360000000002
aF4185.5569999999998
aa(lp425
F3641.616
aF3780.7649999999999
aF4169.3810000000003
aF4228.6580000000004
aa(lp426
F10000
aa(lp427
F3636.0619999999999
aF3715.2159999999999
aF4182.2290000000003
aF4207.6419999999998
aF4268.8699999999999
aF4718.29
aa(lp428
F3655.2620000000002
aF3691.2159999999999
aF4228.8990000000003
aF4307.634
aa(lp429
F3635.8800000000001
aF3717.672
aF7729.424
aa(lp430
F10000
aa(lp431
F10000
aa(lp432
F10000
aa(lp433
F10000
aa(lp434
F10000
aa(lp435
F10000
aa(lp436
F10000
aa(lp437
F10000
aa(lp438
F10000
aa(lp439
F10000
aa(lp440
F10000
aa(lp441
F10000
aa(lp442
F10000
aa(lp443
F10000
aa(lp444
F10000
aa(lp445
F10000
aa(lp446
F10000
aa(lp447
F10000
aa(lp448
F10000
aa(lp449
F10000
aa(lp450
F10000
aa(lp451
F10000
aa(lp452
F10000
aa(lp453
F10000
aa(lp454
F10000
aa(lp455
F10000
aa(lp456
F10000
aa(lp457
F10000
aa(lp458
F10000
aa(lp459
F10000
aa(lp460
F10000
aa(lp461
F10000
aa(lp462
F10000
aa(lp463
F10000
aa(lp464
F10000
aa(lp465
F10000
aa(lp466
F10000
aa(lp467
F10000
aa(lp468
F10000
aa(lp469
F10000
aa(lp470
F10000
aa(lp471
F4873.8040000000001
aa(lp472
F10000
aa(lp473
F10000
aa(lp474
F10000
aa(lp475
F8437.7009999999991
aa(lp476
F10000
aa(lp477
F10000
aa(lp478
F10000
aa(lp479
F10000
aa(lp480
F10000
aa(lp481
F10000
aa(lp482
F10000
aa(lp483
F10000
aa(lp484
F10000
aa(lp485
F10000
aaa(lp486
(lp487
F10000
aa(lp488
F10000
aa(lp489
F10000
aa(lp490
F10000
aa(lp491
F10000
aa(lp492
F10000
aa(lp493
F10000
aa(lp494
F10000
aa(lp495
F10000
aa(lp496
F10000
aa(lp497
F10000
aa(lp498
F10000
aa(lp499
F10000
aa(lp500
F5252.1030000000001
aF9797.0910000000003
aa(lp501
F10000
aa(lp502
F10000
aa(lp503
F10000
aa(lp504
F10000
aa(lp505
F10000
aa(lp506
F10000
aa(lp507
F10000
aa(lp508
F10000
aa(lp509
F10000
aa(lp510
F10000
aa(lp511
F10000
aa(lp512
F10000
aa(lp513
F10000
aa(lp514
F10000
aa(lp515
F10000
aa(lp516
F10000
aa(lp517
F10000
aa(lp518
F10000
aa(lp519
F10000
aa(lp520
F10000
aa(lp521
F10000
aa(lp522
F10000
aa(lp523
F10000
aa(lp524
F10000
aa(lp525
F10000
aa(lp526
F10000
aa(lp527
F4077.5819999999999
aF4273.0839999999998
aa(lp528
F3919.3220000000001
aF4015.8110000000001
aF4234.7790000000005
aF4271.1620000000003
aF4530.04
aa(lp529
F3807.096
aF3863.1819999999998
aF3954.9659999999999
aF4218.3609999999999
aF5919.29
aa(lp530
F3872.895
aF4201.8779999999997
aa(lp531
F3937.7779999999998
aF4001.4029999999998
aF4277.6779999999999
aF4307.9539999999997
aF4379.4629999999997
aa(lp532
F3869.8490000000002
aF3888.0569999999998
aF4360.0209999999997
aa(lp533
F3825.5100000000002
aF3841.3789999999999
aF3926.7310000000002
aF4158.2749999999996
aF4356.183
aF4397.1009999999997
aa(lp534
F3797.6999999999998
aF3817.194
aF3864.8580000000002
aF4338.3159999999998
aF4371.0550000000003
aa(lp535
F3800.549
aF3936.567
aF4249.9610000000002
aF4362.9799999999996
aa(lp536
F3787.1959999999999
aF3860.5999999999999
aF3945.3800000000001
aF4104.1180000000004
aF4350.799
aa(lp537
F3797.989
aF3928.0059999999999
aF4059.6959999999999
aF4352.1800000000003
aa(lp538
F3775.2910000000002
aF3904.8760000000002
aF4003.8820000000001
aF4350.2610000000004
aa(lp539
F3850.1790000000001
aF3908.384
aa(lp540
F3967.5729999999999
aF4391.4040000000005
aF4702.1809999999996
aa(lp541
F3696.2399999999998
aF3777.0459999999998
aF4438.9849999999997
aF6330.3389999999999
aa(lp542
F3809.942
aF4407.2780000000002
aF7057.2740000000003
aa(lp543
F3708.4699999999998
aF4031.2350000000001
aF4173.0370000000003
aF4428.6729999999998
aa(lp544
F3764.6309999999999
aF4426.4560000000001
aa(lp545
F4042.7080000000001
aF4525.3850000000002
aa(lp546
F3917.3699999999999
aF4571.9859999999999
aa(lp547
F3746.2350000000001
aF4449.6949999999997
aa(lp548
F3671.931
aF3686.6579999999999
aF3718.556
aF3771.491
aF3900.3969999999999
aF4338.5240000000003
aa(lp549
F3677.4960000000001
aF4244.6149999999998
aF4354.5709999999999
aF4808.433
aa(lp550
F3659.5500000000002
aF4758.6170000000002
aa(lp551
F10000
aa(lp552
F10000
aa(lp553
F3908.5599999999999
aa(lp554
F3795.201
aF5156.4799999999996
aa(lp555
F10000
aa(lp556
F3796.2719999999999
aF6307.4309999999996
aa(lp557
F3957.502
aF4713.8770000000004
aa(lp558
F3908.5500000000002
aF4611.6570000000002
aa(lp559
F10000
aa(lp560
F10000
aa(lp561
F10000
aa(lp562
F10000
aa(lp563
F10000
aa(lp564
F10000
aa(lp565
F10000
aa(lp566
F10000
aa(lp567
F10000
aa(lp568
F10000
aa(lp569
F10000
aa(lp570
F10000
aa(lp571
F10000
aa(lp572
F10000
aa(lp573
F10000
aa(lp574
F10000
aa(lp575
F10000
aa(lp576
F10000
aa(lp577
F10000
aa(lp578
F4828.7979999999998
aa(lp579
F7765.4899999999998
aa(lp580
F10000
aa(lp581
F10000
aa(lp582
F10000
aa(lp583
F10000
aa(lp584
F10000
aa(lp585
F10000
aa(lp586
F10000
aa(lp587
F9789.482
aa(lp588
F5856.1719999999996
aa(lp589
F10000
aa(lp590
F10000
aa(lp591
F10000
aa(lp592
F10000
aa(lp593
F10000
aa(lp594
F6682.0630000000001
aa(lp595
F10000
aa(lp596
F10000
aa(lp597
F10000
aa(lp598
F10000
aa(lp599
F10000
aa(lp600
F10000
aa(lp601
F10000
aa(lp602
F10000
aa(lp603
F10000
aa(lp604
F10000
aa(lp605
F10000
aa(lp606
F10000
aaa(lp607
(lp608
F10000
aa(lp609
F10000
aa(lp610
F10000
aa(lp611
F9017.4629999999997
aa(lp612
F10000
aa(lp613
F10000
aa(lp614
F10000
aa(lp615
F10000
aa(lp616
F10000
aa(lp617
F7965.4300000000003
aa(lp618
F10000
aa(lp619
F10000
aa(lp620
F10000
aa(lp621
F10000
aa(lp622
F10000
aa(lp623
F10000
aa(lp624
F10000
aa(lp625
F10000
aa(lp626
F10000
aa(lp627
F10000
aa(lp628
F8929.2990000000009
aa(lp629
F10000
aa(lp630
F10000
aa(lp631
F10000
aa(lp632
F10000
aa(lp633
F10000
aa(lp634
F10000
aa(lp635
F10000
aa(lp636
F10000
aa(lp637
F10000
aa(lp638
F10000
aa(lp639
F10000
aa(lp640
F5130.8739999999998
aa(lp641
F10000
aa(lp642
F10000
aa(lp643
F10000
aa(lp644
F10000
aa(lp645
F10000
aa(lp646
F10000
aa(lp647
F10000
aa(lp648
F4172.9669999999996
aF4357.5159999999996
aa(lp649
F3958.3440000000001
aF4018.3009999999999
aF4078.3850000000002
aF4270.1289999999999
aF4368.4319999999998
aF4384.0209999999997
aF4400.3670000000002
aa(lp650
F3928.6709999999998
aF3953.5010000000002
aF4030.8359999999998
aF4244.2209999999995
aF4355.6679999999997
aF4374.4570000000003
aa(lp651
F3948.9929999999999
aF3992.1170000000002
aF4331.9960000000001
aa(lp652
F4221.5420000000004
aF4356.8519999999999
aa(lp653
F10000
aa(lp654
F3953.3600000000001
aF4001.174
aF4051.4499999999998
aF4206.2370000000001
aF4511.4430000000002
aa(lp655
F3923.8290000000002
aF3960.2579999999998
aF4154.2510000000002
aF4467.1760000000004
aF4510.2669999999998
aa(lp656
F3968.0100000000002
aF4111.5559999999996
aF4330.9759999999997
aF4521.1970000000001
aa(lp657
F3925.1120000000001
aF4034.3069999999998
aF4099.2470000000003
aF4265.9979999999996
aF4499.2030000000004
aF4553.085
aa(lp658
F3912.8710000000001
aF4006.4940000000001
aF4342.6329999999998
aF4531.1419999999998
aa(lp659
F3947.221
aF4011.2570000000001
aF4197.7250000000004
aF4512.3100000000004
aF5652.8379999999997
aa(lp660
F3899.645
aF4065.6219999999998
aF4299.9070000000002
aF4477.8599999999997
aF4505.585
aa(lp661
F3848.2089999999998
aF3889.6770000000001
aF4019.9479999999999
aF4475.442
aF4498.7830000000004
aF4976.326
aa(lp662
F3825.5039999999999
aF3853.7280000000001
aF3907.6559999999999
aF4482.6300000000001
aF4551.0050000000001
aa(lp663
F3861.9180000000001
aF3954.143
aF4452.9769999999999
aF4574.4009999999998
aa(lp664
F3823.567
aF3922.1729999999998
aF4596.9369999999999
aF5060.3459999999995
aa(lp665
F3806.2449999999999
aF3849.7840000000001
aF4579.893
aF4829.1319999999996
aa(lp666
F3875.337
aF3953.8960000000002
aF4671.3029999999999
aF5736.0900000000001
aa(lp667
F3835.6930000000002
aF3860.5230000000001
aF4632.5720000000001
aF4683.3050000000003
aa(lp668
F3870.645
aF4669.884
aF4725.6180000000004
aa(lp669
F3748.3809999999999
aF3778.1900000000001
aF4749.4480000000003
aa(lp670
F3665.3890000000001
aF3696.9050000000002
aF3772.8919999999998
aF5732.5299999999997
aa(lp671
F3995.761
aF4804.0550000000003
aa(lp672
F3953.4560000000001
aF5027.8940000000002
aa(lp673
F3881.04
aF4901.6379999999999
aa(lp674
F3864.2289999999998
aF5155.5889999999999
aa(lp675
F4128.5649999999996
aF4702.098
aa(lp676
F10000
aa(lp677
F10000
aa(lp678
F3906.181
aF5473.9080000000004
aa(lp679
F4324.3149999999996
aF4550.9859999999999
aa(lp680
F10000
aa(lp681
F10000
aa(lp682
F10000
aa(lp683
F10000
aa(lp684
F9994.8160000000007
aa(lp685
F10000
aa(lp686
F9657.8019999999997
aa(lp687
F10000
aa(lp688
F6958.8339999999998
aa(lp689
F10000
aa(lp690
F10000
aa(lp691
F10000
aa(lp692
F10000
aa(lp693
F10000
aa(lp694
F10000
aa(lp695
F10000
aa(lp696
F9841.0110000000004
aa(lp697
F10000
aa(lp698
F10000
aa(lp699
F10000
aa(lp700
F10000
aa(lp701
F10000
aa(lp702
F10000
aa(lp703
F10000
aa(lp704
F10000
aa(lp705
F10000
aa(lp706
F10000
aa(lp707
F8537.9860000000008
aa(lp708
F10000
aa(lp709
F10000
aa(lp710
F10000
aa(lp711
F10000
aa(lp712
F10000
aa(lp713
F10000
aa(lp714
F10000
aa(lp715
F10000
aa(lp716
F10000
aa(lp717
F10000
aa(lp718
F10000
aa(lp719
F10000
aa(lp720
F10000
aa(lp721
F10000
aa(lp722
F10000
aa(lp723
F10000
aa(lp724
F10000
aa(lp725
F10000
aa(lp726
F10000
aa(lp727
F10000
aaa(lp728
(lp729
F10000
aa(lp730
F10000
aa(lp731
F10000
aa(lp732
F10000
aa(lp733
F10000
aa(lp734
F10000
aa(lp735
F10000
aa(lp736
F10000
aa(lp737
F9015.5490000000009
aa(lp738
F10000
aa(lp739
F10000
aa(lp740
F10000
aa(lp741
F10000
aa(lp742
F10000
aa(lp743
F10000
aa(lp744
F10000
aa(lp745
F10000
aa(lp746
F10000
aa(lp747
F10000
aa(lp748
F10000
aa(lp749
F10000
aa(lp750
F10000
aa(lp751
F10000
aa(lp752
F10000
aa(lp753
F10000
aa(lp754
F5403.3239999999996
aa(lp755
F10000
aa(lp756
F10000
aa(lp757
F10000
aa(lp758
F10000
aa(lp759
F10000
aa(lp760
F10000
aa(lp761
F10000
aa(lp762
F10000
aa(lp763
F10000
aa(lp764
F10000
aa(lp765
F10000
aa(lp766
F10000
aa(lp767
F10000
aa(lp768
F10000
aa(lp769
F4289.0280000000002
aF4486.7579999999998
aa(lp770
F4185.8180000000002
aF4229.2839999999997
aF4547.7420000000002
aa(lp771
F4525.8100000000004
aa(lp772
F4182.5320000000002
aF4517.4229999999998
aa(lp773
F4239.8050000000003
aF4249.5110000000004
aF4334.8090000000002
aF4546.9979999999996
aF4568.5450000000001
aF4661.6139999999996
aa(lp774
F4147.6350000000002
aF4627.951
aa(lp775
F4178.6970000000001
aa(lp776
F4578.2910000000002
aF4749.6679999999997
aF5845.5699999999997
aF6773.6499999999996
aF6775.8059999999996
aa(lp777
F4284.7439999999997
aF4475.0140000000001
aa(lp778
F4082.6379999999999
aF4182.4049999999997
aF4256.8500000000004
aF4450.3540000000003
aa(lp779
F4066.4560000000001
aF4154.0770000000002
aF4485.3199999999997
aa(lp780
F4184.8590000000004
aF4397.4660000000003
aa(lp781
F4029.0340000000001
aF4614.7340000000004
aa(lp782
F4295.4610000000002
aF4622.5500000000002
aF4656.29
aa(lp783
F3988.201
aF4626.8469999999998
aF4725.393
aa(lp784
F4113.7809999999999
aF4622.9750000000004
aF4783.6379999999999
aa(lp785
F4070.4290000000001
aF4665.5159999999996
aa(lp786
F4037.8020000000001
aF4745.3800000000001
aa(lp787
F4305.348
aF4373.2719999999999
aF9243.8050000000003
aa(lp788
F10000
aa(lp789
F4330.451
aF4354.8459999999995
aF4754.7759999999998
aF4827.9549999999999
aa(lp790
F4809.9870000000001
aF4950.3500000000004
aa(lp791
F3683.9029999999998
aF3706.6179999999999
aF3728.4859999999999
aF3769.0920000000001
aF4006.489
aF4829.201
aF5577.4840000000004
aa(lp792
F10000
aa(lp793
F1305.7470000000001
aF3783.308
aa(lp794
F10000
aa(lp795
F10000
aa(lp796
F10000
aa(lp797
F10000
aa(lp798
F10000
aa(lp799
F10000
aa(lp800
F8969.1630000000005
aa(lp801
F10000
aa(lp802
F10000
aa(lp803
F10000
aa(lp804
F10000
aa(lp805
F10000
aa(lp806
F10000
aa(lp807
F10000
aa(lp808
F10000
aa(lp809
F10000
aa(lp810
F10000
aa(lp811
F10000
aa(lp812
F10000
aa(lp813
F10000
aa(lp814
F10000
aa(lp815
F10000
aa(lp816
F10000
aa(lp817
F10000
aa(lp818
F10000
aa(lp819
F10000
aa(lp820
F10000
aa(lp821
F10000
aa(lp822
F8814.3089999999993
aa(lp823
F5627.1989999999996
aa(lp824
F10000
aa(lp825
F10000
aa(lp826
F10000
aa(lp827
F10000
aa(lp828
F10000
aa(lp829
F10000
aa(lp830
F10000
aa(lp831
F10000
aa(lp832
F10000
aa(lp833
F10000
aa(lp834
F10000
aa(lp835
F10000
aa(lp836
F10000
aa(lp837
F10000
aa(lp838
F10000
aa(lp839
F10000
aa(lp840
F10000
aa(lp841
F10000
aa(lp842
F10000
aa(lp843
F10000
aa(lp844
F10000
aa(lp845
F10000
aa(lp846
F10000
aa(lp847
F7392.6409999999996
aa(lp848
F10000
aaa(lp849
(lp850
F10000
aa(lp851
F10000
aa(lp852
F10000
aa(lp853
F10000
aa(lp854
F10000
aa(lp855
F10000
aa(lp856
F10000
aa(lp857
F10000
aa(lp858
F4523.7780000000002
aa(lp859
F10000
aa(lp860
F10000
aa(lp861
F10000
aa(lp862
F10000
aa(lp863
F10000
aa(lp864
F10000
aa(lp865
F10000
aa(lp866
F10000
aa(lp867
F10000
aa(lp868
F10000
aa(lp869
F10000
aa(lp870
F10000
aa(lp871
F10000
aa(lp872
F10000
aa(lp873
F10000
aa(lp874
F9868.4320000000007
aa(lp875
F10000
aa(lp876
F10000
aa(lp877
F10000
aa(lp878
F10000
aa(lp879
F10000
aa(lp880
F10000
aa(lp881
F10000
aa(lp882
F10000
aa(lp883
F10000
aa(lp884
F10000
aa(lp885
F10000
aa(lp886
F10000
aa(lp887
F3097.6619999999998
aF8915.0290000000005
aa(lp888
F10000
aa(lp889
F10000
aa(lp890
F10000
aa(lp891
F4351.585
aF4401.5829999999996
aF4652.1530000000002
aF4793.7939999999999
aF5400.0600000000004
aa(lp892
F4408.4690000000001
aF4593.9889999999996
aF4649.6270000000004
aF4884.1030000000001
aa(lp893
F10000
aa(lp894
F4496.8429999999998
aF4657.1270000000004
aF4678.8109999999997
aF4749.5360000000001
aa(lp895
F4299.7709999999997
aF4371.2809999999999
aF4707.1220000000003
aF4797.433
aa(lp896
F4274.6999999999998
aF4375.451
aF4719.107
aF5600.8770000000004
aa(lp897
F4399.8190000000004
aF4636.665
aa(lp898
F4393.9179999999997
aF4636.1109999999999
aa(lp899
F4173.0479999999998
aF4325.8800000000001
aF4469.7889999999998
aF4580.3320000000003
aF4683.2200000000003
aa(lp900
F4421.4979999999996
aF4614.5479999999998
aF7509.3890000000001
aF8215.6659999999993
aF8259.9750000000004
aa(lp901
F4386.2240000000002
aF4607.8549999999996
aa(lp902
F3992.373
aF4181.3469999999998
aF4592.6940000000004
aa(lp903
F4488.9740000000002
aF4537.9809999999998
aF4741.9380000000001
aa(lp904
F4147.692
aF4736.2910000000002
aa(lp905
F4151.4489999999996
aF4734.3789999999999
aa(lp906
F4102.567
aF4413.8140000000003
aF4750.7160000000003
aa(lp907
F4077.2600000000002
aF4772.0659999999998
aa(lp908
F4316.0360000000001
aF4444.6279999999997
aF4697.549
aF4816.393
aa(lp909
F4340.1809999999996
aF4526.8069999999998
aa(lp910
F4363.6679999999997
aF4424.4129999999996
aF4787.3739999999998
aF4907.2039999999997
aF9151.7569999999996
aa(lp911
F10000
aa(lp912
F3715.4209999999998
aF3841.4279999999999
aa(lp913
F10000
aa(lp914
F10000
aa(lp915
F10000
aa(lp916
F10000
aa(lp917
F10000
aa(lp918
F9946.9349999999995
aa(lp919
F10000
aa(lp920
F10000
aa(lp921
F10000
aa(lp922
F10000
aa(lp923
F10000
aa(lp924
F10000
aa(lp925
F10000
aa(lp926
F10000
aa(lp927
F10000
aa(lp928
F10000
aa(lp929
F10000
aa(lp930
F10000
aa(lp931
F10000
aa(lp932
F10000
aa(lp933
F9018.8629999999994
aa(lp934
F10000
aa(lp935
F3071.0079999999998
aa(lp936
F10000
aa(lp937
F10000
aa(lp938
F10000
aa(lp939
F10000
aa(lp940
F10000
aa(lp941
F10000
aa(lp942
F10000
aa(lp943
F10000
aa(lp944
F10000
aa(lp945
F5931.0079999999998
aa(lp946
F10000
aa(lp947
F10000
aa(lp948
F10000
aa(lp949
F10000
aa(lp950
F10000
aa(lp951
F10000
aa(lp952
F10000
aa(lp953
F10000
aa(lp954
F10000
aa(lp955
F10000
aa(lp956
F10000
aa(lp957
F10000
aa(lp958
F10000
aa(lp959
F10000
aa(lp960
F10000
aa(lp961
F10000
aa(lp962
F10000
aa(lp963
F10000
aa(lp964
F10000
aa(lp965
F9895.7540000000008
aa(lp966
F10000
aa(lp967
F1758.7170000000001
aa(lp968
F10000
aa(lp969
F10000
aaa(lp970
(lp971
F9420.6190000000006
aa(lp972
F10000
aa(lp973
F10000
aa(lp974
F10000
aa(lp975
F10000
aa(lp976
F10000
aa(lp977
F10000
aa(lp978
F10000
aa(lp979
F10000
aa(lp980
F10000
aa(lp981
F10000
aa(lp982
F10000
aa(lp983
F10000
aa(lp984
F10000
aa(lp985
F10000
aa(lp986
F10000
aa(lp987
F10000
aa(lp988
F10000
aa(lp989
F10000
aa(lp990
F10000
aa(lp991
F10000
aa(lp992
F10000
aa(lp993
F10000
aa(lp994
F10000
aa(lp995
F10000
aa(lp996
F10000
aa(lp997
F10000
aa(lp998
F10000
aa(lp999
F10000
aa(lp1000
F10000
aa(lp1001
F10000
aa(lp1002
F10000
aa(lp1003
F10000
aa(lp1004
F10000
aa(lp1005
F6144.6300000000001
aa(lp1006
F10000
aa(lp1007
F10000
aa(lp1008
F10000
aa(lp1009
F10000
aa(lp1010
F4272.4459999999999
aa(lp1011
F10000
aa(lp1012
F4480.165
aF4580.5600000000004
aF4748.8530000000001
aF4792.7610000000004
aa(lp1013
F4464.9120000000003
aF4580.4390000000003
aF4752.4610000000002
aF5946.8069999999998
aF6492.777
aF6494.6509999999998
aa(lp1014
F5375.2950000000001
aF5449.5339999999997
aF6128.5649999999996
aF7015.2820000000002
aF7939.8819999999996
aa(lp1015
F4525.2650000000003
aF4539.5140000000001
aF4548.8599999999997
aF4566.6109999999999
aF4576.5190000000002
aF4627.3829999999998
aF4746.0690000000004
aF4760.174
aF4771.9129999999996
aF4800.4679999999998
aa(lp1016
F4478.6199999999999
aF4524.6149999999998
aF4625.9099999999999
aF4799.7529999999997
aF4810.4200000000001
aF4921.7809999999999
aa(lp1017
F4479.5320000000002
aF4544.0590000000002
aF4873.2969999999996
aa(lp1018
F2721.4189999999999
aF2947.0790000000002
aa(lp1019
F4598.1400000000003
aF4741.4539999999997
aF6021.9139999999998
aa(lp1020
F4597.1599999999999
aF4696.0010000000002
aa(lp1021
F4582.6180000000004
aF4728.3280000000004
aa(lp1022
F4569.1409999999996
aF4678.2439999999997
aF4751.7830000000004
aF4890.7309999999998
aa(lp1023
F4398.2250000000004
aF4699.4809999999998
aa(lp1024
F4415.1899999999996
aF4509.9229999999998
aF4688.5420000000004
aF4829.4530000000004
aa(lp1025
F6909.0709999999999
aa(lp1026
F4348.7110000000002
aF4803.6369999999997
aa(lp1027
F4327.79
aF4814.2259999999997
aa(lp1028
F3972.5590000000002
aF4380.1599999999999
aF4482.7809999999999
aF4827.723
aa(lp1029
F4417.201
aF4576.0429999999997
aF4578.5360000000001
aF5296.9610000000002
aa(lp1030
F10000
aa(lp1031
F4401.4719999999998
aF4452.9409999999998
aF4870.018
aF4926.826
aa(lp1032
F10000
aa(lp1033
F4902.223
aa(lp1034
F10000
aa(lp1035
F10000
aa(lp1036
F10000
aa(lp1037
F10000
aa(lp1038
F10000
aa(lp1039
F10000
aa(lp1040
F10000
aa(lp1041
F3669.2860000000001
aa(lp1042
F10000
aa(lp1043
F10000
aa(lp1044
F10000
aa(lp1045
F10000
aa(lp1046
F10000
aa(lp1047
F10000
aa(lp1048
F10000
aa(lp1049
F10000
aa(lp1050
F10000
aa(lp1051
F10000
aa(lp1052
F10000
aa(lp1053
F10000
aa(lp1054
F8538.2610000000004
aa(lp1055
F10000
aa(lp1056
F10000
aa(lp1057
F10000
aa(lp1058
F8446.7970000000005
aa(lp1059
F10000
aa(lp1060
F10000
aa(lp1061
F10000
aa(lp1062
F10000
aa(lp1063
F10000
aa(lp1064
F10000
aa(lp1065
F10000
aa(lp1066
F10000
aa(lp1067
F10000
aa(lp1068
F10000
aa(lp1069
F10000
aa(lp1070
F10000
aa(lp1071
F9470.1980000000003
aa(lp1072
F10000
aa(lp1073
F10000
aa(lp1074
F10000
aa(lp1075
F10000
aa(lp1076
F10000
aa(lp1077
F10000
aa(lp1078
F10000
aa(lp1079
F10000
aa(lp1080
F5501.4219999999996
aa(lp1081
F10000
aa(lp1082
F10000
aa(lp1083
F10000
aa(lp1084
F3923.8330000000001
aa(lp1085
F10000
aa(lp1086
F10000
aa(lp1087
F10000
aa(lp1088
F10000
aa(lp1089
F10000
aa(lp1090
F10000
aaa(lp1091
(lp1092
F10000
aa(lp1093
F10000
aa(lp1094
F4888.5379999999996
aa(lp1095
F10000
aa(lp1096
F10000
aa(lp1097
F10000
aa(lp1098
F9881.4410000000007
aa(lp1099
F10000
aa(lp1100
F10000
aa(lp1101
F10000
aa(lp1102
F10000
aa(lp1103
F10000
aa(lp1104
F10000
aa(lp1105
F10000
aa(lp1106
F10000
aa(lp1107
F10000
aa(lp1108
F10000
aa(lp1109
F10000
aa(lp1110
F10000
aa(lp1111
F10000
aa(lp1112
F10000
aa(lp1113
F10000
aa(lp1114
F10000
aa(lp1115
F10000
aa(lp1116
F10000
aa(lp1117
F10000
aa(lp1118
F10000
aa(lp1119
F10000
aa(lp1120
F10000
aa(lp1121
F10000
aa(lp1122
F10000
aa(lp1123
F10000
aa(lp1124
F10000
aa(lp1125
F10000
aa(lp1126
F10000
aa(lp1127
F10000
aa(lp1128
F10000
aa(lp1129
F10000
aa(lp1130
F10000
aa(lp1131
F10000
aa(lp1132
F10000
aa(lp1133
F4641.9549999999999
aF4744.0910000000003
aF4852.3429999999998
aF4866.5389999999998
aa(lp1134
F4631.1170000000002
aF4812.3779999999997
aF4850.46
aF4982.527
aa(lp1135
F9794.6700000000001
aa(lp1136
F4653.2250000000004
aF4673.5569999999998
aF4731.3069999999998
aF4872.2030000000004
aF4885.5020000000004
aF4968.6139999999996
aa(lp1137
F4619.1850000000004
aF4688.5309999999999
aF4923.9859999999999
aF4972.7669999999998
aF5041.6710000000003
aa(lp1138
F4638.0730000000003
aF4660.9989999999998
aF4759.6279999999997
aF4876.5370000000003
aF4998.2979999999998
aa(lp1139
F4713.1930000000002
aF4877.9059999999999
aF5110.5569999999998
aF5175.0799999999999
aF6302.9129999999996
aa(lp1140
F4662.9380000000001
aF4851.6239999999998
aa(lp1141
F4702.7349999999997
aF4818.8239999999996
aF4875.732
aF5058.5100000000002
aF5735.8969999999999
aa(lp1142
F4690.7759999999998
aF4841.4719999999998
aF5001.1840000000002
aF6487.7600000000002
aF6489.366
aF6735.6620000000003
aF7385.1459999999997
aa(lp1143
F4801.46
aF4960.598
aa(lp1144
F4799.6999999999998
aa(lp1145
F3093.6439999999998
aF4522.1289999999999
aF4926.8999999999996
aa(lp1146
F4508.0370000000003
aF4877.9200000000001
aa(lp1147
F3471.5720000000001
aF4471.9110000000001
aF4873.8599999999997
aa(lp1148
F4472.9570000000003
aF4848.482
aa(lp1149
F10000
aa(lp1150
F10000
aa(lp1151
F10000
aa(lp1152
F4467.6750000000002
aF4514.1239999999998
aF4951.5119999999997
aF4966.0699999999997
aF9743.0589999999993
aF9847.7289999999994
aa(lp1153
F4954.2579999999998
aF5024.1540000000005
aa(lp1154
F4393.9539999999997
aF4442.9089999999997
aF4942.8699999999999
aF4989.8540000000003
aa(lp1155
F10000
aa(lp1156
F10000
aa(lp1157
F10000
aa(lp1158
F10000
aa(lp1159
F7107.9889999999996
aa(lp1160
F10000
aa(lp1161
F10000
aa(lp1162
F10000
aa(lp1163
F10000
aa(lp1164
F10000
aa(lp1165
F10000
aa(lp1166
F10000
aa(lp1167
F10000
aa(lp1168
F10000
aa(lp1169
F10000
aa(lp1170
F10000
aa(lp1171
F10000
aa(lp1172
F10000
aa(lp1173
F10000
aa(lp1174
F10000
aa(lp1175
F10000
aa(lp1176
F10000
aa(lp1177
F10000
aa(lp1178
F10000
aa(lp1179
F10000
aa(lp1180
F10000
aa(lp1181
F10000
aa(lp1182
F10000
aa(lp1183
F10000
aa(lp1184
F10000
aa(lp1185
F10000
aa(lp1186
F10000
aa(lp1187
F10000
aa(lp1188
F10000
aa(lp1189
F10000
aa(lp1190
F10000
aa(lp1191
F10000
aa(lp1192
F10000
aa(lp1193
F10000
aa(lp1194
F10000
aa(lp1195
F10000
aa(lp1196
F10000
aa(lp1197
F10000
aa(lp1198
F10000
aa(lp1199
F10000
aa(lp1200
F10000
aa(lp1201
F10000
aa(lp1202
F10000
aa(lp1203
F10000
aa(lp1204
F10000
aa(lp1205
F10000
aa(lp1206
F10000
aa(lp1207
F10000
aa(lp1208
F10000
aa(lp1209
F10000
aa(lp1210
F10000
aa(lp1211
F10000
aaa.