(lp1
(lp2
(lp3
F10000
aa(lp4
F10000
aa(lp5
F10000
aa(lp6
F10000
aa(lp7
F10000
aa(lp8
F10000
aa(lp9
F10000
aa(lp10
F10000
aa(lp11
F10000
aa(lp12
F10000
aa(lp13
F10000
aa(lp14
F10000
aa(lp15
F10000
aa(lp16
F10000
aa(lp17
F10000
aa(lp18
F10000
aa(lp19
F10000
aa(lp20
F10000
aa(lp21
F10000
aa(lp22
F10000
aaa(lp23
(lp24
F10000
aa(lp25
F10000
aa(lp26
F10000
aa(lp27
F10000
aa(lp28
F10000
aa(lp29
F10000
aa(lp30
F10000
aa(lp31
F10000
aa(lp32
F10000
aa(lp33
F10000
aa(lp34
F10000
aa(lp35
F10000
aa(lp36
F10000
aa(lp37
F5752.317
aa(lp38
F10000
aa(lp39
F10000
aa(lp40
F10000
aa(lp41
F10000
aa(lp42
F10000
aa(lp43
F10000
aaa(lp44
(lp45
F2511.4679999999998
aF2616.8409999999999
aa(lp46
F2498.7040000000002
aF2769.953
aF2999.087
aa(lp47
F2641.027
aF3005.884
aF3068.2240000000002
aa(lp48
F2567.7890000000002
aF2714.989
aF2917.9360000000001
aF3084.3209999999999
aa(lp49
F2531.9679999999998
aF2703.2440000000001
aF2912.297
aF3021.105
aa(lp50
F10000
aa(lp51
F10000
aa(lp52
F10000
aa(lp53
F10000
aa(lp54
F10000
aa(lp55
F6410.8710000000001
aa(lp56
F10000
aa(lp57
F10000
aa(lp58
F10000
aa(lp59
F10000
aa(lp60
F10000
aa(lp61
F10000
aa(lp62
F10000
aa(lp63
F10000
aa(lp64
F10000
aaa(lp65
(lp66
F2745.9609999999998
aF2819.8649999999998
aa(lp67
F2710.0729999999999
aF2964.4479999999999
aF3064.3249999999998
aF3124.1610000000001
aF5830.808
aa(lp68
F2829.8670000000002
aF2964.3499999999999
aF3058.3800000000001
aF3148.7620000000002
aa(lp69
F2663.248
aF2883.3159999999998
aF3073.922
aF3169.0500000000002
aa(lp70
F2719.2179999999998
aF2884.134
aF3121.473
aa(lp71
F10000
aa(lp72
F6009.527
aa(lp73
F10000
aa(lp74
F10000
aa(lp75
F10000
aa(lp76
F10000
aa(lp77
F10000
aa(lp78
F10000
aa(lp79
F9294.5900000000001
aa(lp80
F10000
aa(lp81
F4313.4989999999998
aa(lp82
F10000
aa(lp83
F10000
aa(lp84
F10000
aa(lp85
F10000
aaa(lp86
(lp87
F2935.6869999999999
aF2978.1039999999998
aF3007.6819999999998
aF3175.306
aF3920.8719999999998
aa(lp88
F2890.4099999999999
aF2967.855
aF3179.7359999999999
aF3287.4290000000001
aa(lp89
F2945.2280000000001
aF3103.549
aF3153.817
aF3227.9009999999998
aa(lp90
F2942.6399999999999
aF3016.6120000000001
aF3089.0439999999999
aF3137.5839999999998
aF3194.1120000000001
aa(lp91
F2955.4499999999998
aF3080.6860000000001
aF3170.0430000000001
aF3226.761
aa(lp92
F2781.288
aF2957.3960000000002
aF3185.4670000000001
aF3293.5250000000001
aa(lp93
F2736.0770000000002
aF2778.752
aF3212.047
aF3227.7199999999998
aa(lp94
F2667.797
aF2697.4940000000001
aF2783.6239999999998
aF3228.8560000000002
aF3395.346
aa(lp95
F2675.9279999999999
aF2765.7849999999999
aF3248.8760000000002
aF5189.3630000000003
aa(lp96
F2636.587
aF2660.299
aF2706.366
aF3230.3490000000002
aF3247.163
aa(lp97
F2727.9459999999999
aF3280.6210000000001
aa(lp98
F2660.6619999999998
aF2758.7220000000002
aF2824.777
aF3288.152
aF4649.6769999999997
aa(lp99
F2801.1379999999999
aF2917.2170000000001
aF3208.712
aF3238.2280000000001
aF3314.288
aF3362.6959999999999
aa(lp100
F2816.1439999999998
aF2878.569
aF2966.5509999999999
aF3254.761
aF3270.2159999999999
aF3370.2170000000001
aa(lp101
F2859.6379999999999
aF3341.0940000000001
aF3439.1060000000002
aF4810.2190000000001
aa(lp102
F2859.5500000000002
aF2868.8440000000001
aF3403.6309999999999
aF3436.0520000000001
aF3467.846
aa(lp103
F3398.752
aF3443.7950000000001
aa(lp104
F2808.7339999999999
aF4049.1320000000001
aa(lp105
F10000
aa(lp106
F10000
aaa(lp107
(lp108
F3263.596
aF3389.7930000000001
aa(lp109
F3018.8090000000002
aF3246.4099999999999
aF3292.7489999999998
aF3355.9400000000001
aa(lp110
F3052.3589999999999
aF3188.0329999999999
aF3246.922
aF3324.4050000000002
aa(lp111
F3042.9940000000001
aF3126.1309999999999
aF3155.4180000000001
aF3232.7339999999999
aF3308.5390000000002
aF3471.2199999999998
aF4863.3059999999996
aF6094.335
aF6697.674
aF9779.3490000000002
aF9780.6579999999994
aa(lp112
F3042.2489999999998
aF3242.116
aF3300.9000000000001
aa(lp113
F3087.3029999999999
aF3226.3649999999998
aF3386.2669999999998
aa(lp114
F2924.8270000000002
aF3122.4099999999999
aF3299.547
aF3319.183
aa(lp115
F2847.393
aF2921.7539999999999
aF3020.29
aF3101.933
aF3295.0459999999998
aF3320.9899999999998
aF5482.6589999999997
aa(lp116
F2783.4059999999999
aF2872.8229999999999
aF3224.6970000000001
aF3294.8490000000002
aF3354.9279999999999
aa(lp117
F2749.5599999999999
aF2775.5819999999999
aF2812.5799999999999
aF3200.9639999999999
aF3271.3200000000002
aF3284.701
aF3353.46
aa(lp118
F2760.8829999999998
aF2792.1439999999998
aF3006.9670000000001
aF3290.1179999999999
aF3321.058
aa(lp119
F2827.7620000000002
aF2853.8969999999999
aF2898.5219999999999
aF3191.4949999999999
aF3319.2739999999999
aF3348.6880000000001
aF7263.165
aa(lp120
F2847.4189999999999
aF2899.4650000000001
aF2996.4929999999999
aF3014.4549999999999
aF3268.2420000000002
aF3374.6170000000002
aa(lp121
F2874.7130000000002
aF2953.5810000000001
aF3069.9940000000001
aF3344.627
aF3426.9119999999998
aa(lp122
F2865.9009999999998
aF2886.4369999999999
aF2925.2950000000001
aF3453.7979999999998
aF3462.5709999999999
aF5392.9769999999999
aa(lp123
F2913.0410000000002
aF3428.627
aF3483.7249999999999
aF5079.8339999999998
aa(lp124
F2811.7869999999998
aF2842.7820000000002
aF2914.8159999999998
aF3411.8739999999998
aF3448.9160000000002
aa(lp125
F2877.163
aF3975.248
aa(lp126
F10000
aa(lp127
F10000
aaa(lp128
(lp129
F3131.5839999999998
aF3211.3049999999998
aF3356.75
aF3615.6199999999999
aa(lp130
F3107.2420000000002
aF3223.2330000000002
aF3428.8429999999998
aa(lp131
F3192.1010000000001
aF3411.7820000000002
aF5018.3819999999996
aa(lp132
F3106.2829999999999
aF3202.826
aF3238.4140000000002
aF3334.0149999999999
aF3402.3069999999998
aa(lp133
F3083.098
aF3202.5279999999998
aF3350.1619999999998
aF3446.752
aa(lp134
F3137.154
aF3204.297
aF4543.4359999999997
aa(lp135
F3066.433
aF3126.2269999999999
aF3382.2359999999999
aF3670.7660000000001
aa(lp136
F3018.598
aF3043.9430000000002
aF3093.5610000000001
aF3285.9830000000002
aF3390.1930000000002
aa(lp137
F2976.7109999999998
aF3012.866
aF3081.8609999999999
aF3341.0050000000001
aF3346.837
aF3366.3020000000001
aF4048.9630000000002
aa(lp138
F2947.1190000000001
aF2972.4960000000001
aF3012.0889999999999
aF3140.6930000000002
aF3324.828
aF3332.3270000000002
aF3415.5720000000001
aa(lp139
F2918.9000000000001
aF2975.2719999999999
aF3020.4989999999998
aF3162.6030000000001
aF3331.7020000000002
aF3368.9189999999999
aa(lp140
F2938.4920000000002
aF3007.4290000000001
aF3077.2020000000002
aF3378.1309999999999
aF3497.9290000000001
aa(lp141
F2957.0650000000001
aF3091.7530000000002
aF3147.8069999999998
aF3326.913
aF3416.0610000000001
aF3457.5410000000002
aa(lp142
F2927.6900000000001
aF2984.848
aF3374.3699999999999
aF3409.1300000000001
aF3448.973
aF3499.953
aa(lp143
F2922.768
aF2983.413
aF3007.076
aF3435.2080000000001
aF3498.3389999999999
aa(lp144
F3445.8939999999998
aF3505.6100000000001
aa(lp145
F2831.1460000000002
aF2934.8290000000002
aF3440.395
aF3442.6239999999998
aa(lp146
F10000
aa(lp147
F10000
aa(lp148
F10000
aaa(lp149
(lp150
F3212.308
aF3299.5830000000001
aF3487.6030000000001
aF3549.4340000000002
aa(lp151
F3192.855
aF3242.3780000000002
aF3516.8670000000002
aF7235.357
aa(lp152
F3209.2730000000001
aF3285.288
aF3474.9810000000002
aa(lp153
F3268.2469999999998
aF3317.4369999999999
aF3427.8200000000002
aF3498.0369999999998
aF5880.6049999999996
aa(lp154
F3178.2510000000002
aF3304.7440000000001
aF3400.5569999999998
aF3530.0279999999998
aF7281.6509999999998
aa(lp155
F3222.3620000000001
aF3302.7049999999999
aF3359.0160000000001
aF3500.375
aF3648.8809999999999
aa(lp156
F3174.1889999999999
aF3275.3850000000002
aF3503.6030000000001
aF3751.5520000000001
aa(lp157
F3145.308
aF3196.384
aF3270.7289999999998
aF3337.5320000000002
aF3438.364
aF3449.9389999999999
aF3468.788
aF3497.806
aa(lp158
F3087.085
aF3117.04
aF3429.8649999999998
aF3645.0819999999999
aa(lp159
F3113.125
aF3151.2840000000001
aF3387.8629999999998
aF3466.3299999999999
aa(lp160
F3073.9169999999999
aF3129.1689999999999
aF3439.991
aa(lp161
F3075.3760000000002
aF3105.5360000000001
aF3208.248
aF3398.107
aF3422.1550000000002
aF3440.9099999999999
aF4811.7849999999999
aa(lp162
F3045.4079999999999
aF3108.402
aF3318.2080000000001
aF3366.357
aF3476.0059999999999
aa(lp163
F3011.2489999999998
aF3105.1990000000001
aF3275.6930000000002
aF3446.4009999999998
aF3483.2939999999999
aF3837.8910000000001
aa(lp164
F2986.0500000000002
aF3100.7950000000001
aF3189.8899999999999
aF3248.5459999999998
aF3477.6300000000001
aF3544.9400000000001
aa(lp165
F2992.4209999999998
aF3045.828
aF3181.8400000000001
aF3511.9070000000002
aF3549.3090000000002
aa(lp166
F2903.864
aF2927.6350000000002
aF3179.107
aF3977.9879999999998
aa(lp167
F3126.6590000000001
aF4499.1199999999999
aa(lp168
F3183.768
aF4909.1130000000003
aa(lp169
F3133.2269999999999
aF4697.7269999999999
aaa(lp170
(lp171
F3324.0129999999999
aF3380.1489999999999
aF3607.6010000000001
aF3695.6599999999999
aa(lp172
F3320.096
aF3582.6570000000002
aF3681.067
aa(lp173
F3311.4859999999999
aF3559.8000000000002
aa(lp174
F3273.3249999999998
aF3384.6060000000002
aF3408.7190000000001
aF3547.7869999999998
aF3646.4189999999999
aa(lp175
F3261.4589999999998
aF3394.8429999999998
aF3499.431
aF3647.759
aa(lp176
F3251.6550000000002
aF3331.6840000000002
aF3402.9589999999998
aF3459.9769999999999
aF3620.3670000000002
aF7014.5420000000004
aa(lp177
F3237.5349999999999
aF3297.6819999999998
aF3468.2559999999999
aF3589.4409999999998
aF3614.7800000000002
aF3651.8040000000001
aF4514.6719999999996
aa(lp178
F3217.7660000000001
aF3247.1840000000002
aF3574.645
aF3635.9079999999999
aa(lp179
F3188.9050000000002
aF3205.0929999999998
aF3283.2289999999998
aF3520.6599999999999
aF3545.8850000000002
aF3578.9099999999999
aF5151.5079999999998
aa(lp180
F3165.71
aF3180.7530000000002
aF3219.7289999999998
aF3528.8180000000002
aF3553.9830000000002
aa(lp181
F3170.0410000000002
aF3183.79
aF3229.9540000000002
aF3505.6080000000002
aF3548.8980000000001
aF3663.2640000000001
aa(lp182
F3176.8310000000001
aF3206.29
aF3289.52
aF3432.1210000000001
aF3613.377
aa(lp183
F1163.511
aF3187.5520000000001
aF3206.0630000000001
aF3254.4560000000001
aF3609.203
aF3753.3739999999998
aF5002.8090000000002
aa(lp184
F3222.4679999999998
aF3360.9639999999999
aF3608.7060000000001
aF3669.998
aF7235.3249999999998
aa(lp185
F3166.5880000000002
aF3247.5909999999999
aF3682.502
aF3797.8899999999999
aa(lp186
F3144.681
aF3350.3939999999998
aF3520.0430000000001
aF3545.9409999999998
aF3821.3380000000002
aF3973.1770000000001
aF4025.873
aF4106.9549999999999
aa(lp187
F2940.4140000000002
aF2972.7979999999998
aF3988.0610000000001
aF4901.8819999999996
aa(lp188
F3080.0880000000002
aF3518.8780000000002
aF3697.3820000000001
aF4099.7460000000001
aa(lp189
F3320.6700000000001
aF4055.2199999999998
aa(lp190
F1717.0899999999999
aF3131.7570000000001
aF3734.518
aaa(lp191
(lp192
F3367.7199999999998
aF3492.7779999999998
aF3701.9949999999999
aF3805.3629999999998
aa(lp193
F3347.0210000000002
aF3471.2640000000001
aF3717.8339999999998
aF3783.7570000000001
aa(lp194
F3339.0030000000002
aF3558.3099999999999
aF3670.7800000000002
aF3792.9160000000002
aa(lp195
F3318.931
aF3337.6799999999998
aF3535.029
aF3651.5659999999998
aF3805.2139999999999
aa(lp196
F3323.7269999999999
aF3498.0799999999999
aF3691.1950000000002
aF3776.1509999999998
aa(lp197
F3313.0340000000001
aF3458.0120000000002
aF3627.6300000000001
aF3768.9050000000002
aF3846.9920000000002
aa(lp198
F3294.8180000000002
aF3388.2779999999998
aF3415.636
aF3478.8899999999999
aF3509.2730000000001
aF3717.75
aa(lp199
F10000
aa(lp200
F3458.9989999999998
aF3721.3890000000001
aa(lp201
F3287.605
aF3759.8589999999999
aa(lp202
F10000
aa(lp203
F3301.3069999999998
aF3816.5500000000002
aa(lp204
F3315.2049999999999
aF3500.152
aa(lp205
F3784.8609999999999
aa(lp206
F3920.855
aa(lp207
F3535.587
aF3596.5
aF3746.0520000000001
aF3837.944
aF4100.9549999999999
aF4158.9170000000004
aa(lp208
F2956.721
aF3546.6950000000002
aF4072.7260000000001
aa(lp209
F3153.8789999999999
aF3570.5709999999999
aF3605.5749999999998
aF4121.1199999999999
aF7313.9250000000002
aa(lp210
F10000
aa(lp211
F5155.6499999999996
aaa(lp212
(lp213
F3446.6109999999999
aF3467.529
aF3597.1790000000001
aF3859.8609999999999
aF3890.6840000000002
aF3979.239
aa(lp214
F3455.5079999999998
aF3468.1640000000002
aF3551.4409999999998
aF3897.6799999999998
aF4037.2640000000001
aa(lp215
F3457.8910000000001
aF3900.828
aa(lp216
F3418.8539999999998
aF3433.913
aF3450.248
aF3571.1729999999998
aF3667.9839999999999
aF3778.6689999999999
aF3893.6390000000001
aF3926.4369999999999
aF9824.473
aa(lp217
F3403.9609999999998
aF3422.8470000000002
aF3640.0749999999998
aF3721.116
aF3899.9630000000002
aF3999.982
aa(lp218
F3395.0859999999998
aF3445.0610000000001
aF3557.413
aF3811.2449999999999
aF3876.1779999999999
aF3896.4520000000002
aF4367.5129999999999
aa(lp219
F3383.5929999999998
aF3485.0830000000001
aF3593.4780000000001
aF3813.2249999999999
aF3922.7139999999999
aa(lp220
F3452.607
aa(lp221
F1161.2429999999999
aa(lp222
F10000
aa(lp223
F10000
aa(lp224
F10000
aa(lp225
F3922.9400000000001
aF4049.4119999999998
aa(lp226
F3575.9400000000001
aa(lp227
F3000.9639999999999
aa(lp228
F3576.761
aF3603.9169999999999
aF4073.0680000000002
aF4198.7830000000004
aF4226.4040000000005
aa(lp229
F3592.8229999999999
aF3639.5810000000001
aF4037.9499999999998
aF4152.152
aa(lp230
F3124.9940000000001
aF3547.1489999999999
aF3596.9160000000002
aF3662.306
aF4630.2340000000004
aa(lp231
F10000
aa(lp232
F10000
aaa(lp233
(lp234
F3571.6460000000002
aF3582.3699999999999
aF3620.663
aF3664.5839999999998
aF3703.4470000000001
aF3725.4050000000002
aF3914.145
aF4029.5340000000001
aF4085.3719999999998
aa(lp235
F3575.4769999999999
aF3924.7440000000001
aF4013.7530000000002
aF4047.942
aF4170.3999999999996
aa(lp236
F3553.6759999999999
aF3616.5790000000002
aF3780.105
aF3928.5309999999999
aF4071.9479999999999
aa(lp237
F3541.837
aF3562.6610000000001
aF3630.7710000000002
aF3730.924
aF3892.4400000000001
aF4014.4059999999999
aF4042.4189999999999
aa(lp238
F3550.8519999999999
aF3643.473
aF3715.2510000000002
aF3885.5520000000001
aF4014.1320000000001
aF4043.5250000000001
aa(lp239
F3555.6509999999998
aF3600.3290000000002
aF3644.6770000000001
aF3696.5100000000002
aF3825.1680000000001
aF3995.0650000000001
aF4091.4000000000001
aa(lp240
F3523.6289999999999
aF3573.134
aF3699.069
aF3865.7779999999998
aF3993.509
aa(lp241
F3499.9670000000001
aF3718.422
aa(lp242
F4548.9369999999999
aa(lp243
F10000
aa(lp244
F10000
aa(lp245
F3974.4299999999998
aF4062.2449999999999
aa(lp246
F3567.1460000000002
aF3703.8939999999998
aF4003.6500000000001
aF4154.6679999999997
aa(lp247
F10000
aa(lp248
F10000
aa(lp249
F3630.9549999999999
aF3642.3130000000001
aF4137.6149999999998
aF4240.1390000000001
aF6534.9709999999995
aa(lp250
F3607.3939999999998
aF3669.5810000000001
aF4120.7939999999999
aF4272.8239999999996
aa(lp251
F3556.4740000000002
aF3684.3499999999999
aa(lp252
F10000
aa(lp253
F10000
aaa(lp254
(lp255
F3675.4259999999999
aF3710.2890000000002
aF3814.924
aF3837.2579999999998
aF3962.7339999999999
aF4173.723
aF4195.192
aF4233.2129999999997
aa(lp256
F3698.1579999999999
aF3873.9989999999998
aF4030.8429999999998
aF4165.7380000000003
aF4252.5010000000002
aa(lp257
F3728.3870000000002
aF3825.067
aF3895.2939999999999
aF4157.4650000000001
aF4198.1400000000003
aa(lp258
F3680.3180000000002
aF3742.3220000000001
aF3872.5619999999999
aF3973.8000000000002
aF4152.25
aF4212.9949999999999
aa(lp259
F3670.7339999999999
aF3707.806
aF3825.1170000000002
aF3942.6610000000001
aF4195.7259999999997
aa(lp260
F3657.893
aF3739.364
aF3816.3490000000002
aF3899.4879999999998
aF4158.4170000000004
aF4269.2039999999997
aa(lp261
F3624.4299999999998
aF4146.7269999999999
aa(lp262
F3651.0770000000002
aF3807.1880000000001
aa(lp263
F10000
aa(lp264
F10000
aa(lp265
F10000
aa(lp266
F4047.989
aF4168.1459999999997
aa(lp267
F3666.6320000000001
aF3854.4690000000001
aF4108.8360000000002
aF4185.5569999999998
aa(lp268
F3641.616
aF3780.7649999999999
aF4169.3810000000003
aF4228.6580000000004
aa(lp269
F10000
aa(lp270
F3636.0619999999999
aF3715.2159999999999
aF4182.2290000000003
aF4207.6419999999998
aF4268.8699999999999
aF4718.29
aa(lp271
F3655.2620000000002
aF3691.2159999999999
aF4228.8990000000003
aF4307.634
aa(lp272
F3635.8800000000001
aF3717.672
aF7729.424
aa(lp273
F10000
aa(lp274
F10000
aaa(lp275
(lp276
F3825.5100000000002
aF3841.3789999999999
aF3926.7310000000002
aF4158.2749999999996
aF4356.183
aF4397.1009999999997
aa(lp277
F3797.6999999999998
aF3817.194
aF3864.8580000000002
aF4338.3159999999998
aF4371.0550000000003
aa(lp278
F3800.549
aF3936.567
aF4249.9610000000002
aF4362.9799999999996
aa(lp279
F3787.1959999999999
aF3860.5999999999999
aF3945.3800000000001
aF4104.1180000000004
aF4350.799
aa(lp280
F3797.989
aF3928.0059999999999
aF4059.6959999999999
aF4352.1800000000003
aa(lp281
F3775.2910000000002
aF3904.8760000000002
aF4003.8820000000001
aF4350.2610000000004
aa(lp282
F3850.1790000000001
aF3908.384
aa(lp283
F3967.5729999999999
aF4391.4040000000005
aF4702.1809999999996
aa(lp284
F3696.2399999999998
aF3777.0459999999998
aF4438.9849999999997
aF6330.3389999999999
aa(lp285
F3809.942
aF4407.2780000000002
aF7057.2740000000003
aa(lp286
F3708.4699999999998
aF4031.2350000000001
aF4173.0370000000003
aF4428.6729999999998
aa(lp287
F3764.6309999999999
aF4426.4560000000001
aa(lp288
F4042.7080000000001
aF4525.3850000000002
aa(lp289
F3917.3699999999999
aF4571.9859999999999
aa(lp290
F3746.2350000000001
aF4449.6949999999997
aa(lp291
F3671.931
aF3686.6579999999999
aF3718.556
aF3771.491
aF3900.3969999999999
aF4338.5240000000003
aa(lp292
F3677.4960000000001
aF4244.6149999999998
aF4354.5709999999999
aF4808.433
aa(lp293
F3659.5500000000002
aF4758.6170000000002
aa(lp294
F10000
aa(lp295
F10000
aaa(lp296
(lp297
F3953.3600000000001
aF4001.174
aF4051.4499999999998
aF4206.2370000000001
aF4511.4430000000002
aa(lp298
F3923.8290000000002
aF3960.2579999999998
aF4154.2510000000002
aF4467.1760000000004
aF4510.2669999999998
aa(lp299
F3968.0100000000002
aF4111.5559999999996
aF4330.9759999999997
aF4521.1970000000001
aa(lp300
F4034.3069999999998
aF4099.2470000000003
aF4265.9979999999996
aF4499.2030000000004
aF4553.085
aa(lp301
F3912.8710000000001
aF4006.4940000000001
aF4342.6329999999998
aF4531.1419999999998
aa(lp302
F3947.221
aF4011.2570000000001
aF4197.7250000000004
aF4512.3100000000004
aF5652.8379999999997
aa(lp303
F3899.645
aF4065.6219999999998
aF4299.9070000000002
aF4477.8599999999997
aF4505.585
aa(lp304
F3848.2089999999998
aF3889.6770000000001
aF4019.9479999999999
aF4475.442
aF4498.7830000000004
aF4976.326
aa(lp305
F3825.5039999999999
aF3853.7280000000001
aF3907.6559999999999
aF4482.6300000000001
aF4551.0050000000001
aa(lp306
F3861.9180000000001
aF3954.143
aF4452.9769999999999
aF4574.4009999999998
aa(lp307
F3823.567
aF3922.1729999999998
aF4596.9369999999999
aF5060.3459999999995
aa(lp308
F3806.2449999999999
aF3849.7840000000001
aF4579.893
aF4829.1319999999996
aa(lp309
F3875.337
aF3953.8960000000002
aF4671.3029999999999
aF5736.0900000000001
aa(lp310
F3835.6930000000002
aF3860.5230000000001
aF4632.5720000000001
aF4683.3050000000003
aa(lp311
F3870.645
aF4669.884
aF4725.6180000000004
aa(lp312
F3748.3809999999999
aF3778.1900000000001
aF4749.4480000000003
aa(lp313
F3665.3890000000001
aF3696.9050000000002
aF3772.8919999999998
aF5732.5299999999997
aa(lp314
F3995.761
aF4804.0550000000003
aa(lp315
F3953.4560000000001
aF5027.8940000000002
aa(lp316
F3881.04
aF4901.6379999999999
aaa(lp317
(lp318
F10000
aa(lp319
F4578.2910000000002
aF4749.6679999999997
aF5845.5699999999997
aF6773.6499999999996
aF6775.8059999999996
aa(lp320
F4284.7439999999997
aF4475.0140000000001
aa(lp321
F4082.6379999999999
aF4182.4049999999997
aF4256.8500000000004
aF4450.3540000000003
aa(lp322
F4066.4560000000001
aF4154.0770000000002
aF4485.3199999999997
aa(lp323
F4184.8590000000004
aF4397.4660000000003
aa(lp324
F4029.0340000000001
aF4614.7340000000004
aa(lp325
F4295.4610000000002
aF4622.5500000000002
aF4656.29
aa(lp326
F3988.201
aF4626.8469999999998
aF4725.393
aa(lp327
F4113.7809999999999
aF4622.9750000000004
aF4783.6379999999999
aa(lp328
F4070.4290000000001
aF4665.5159999999996
aa(lp329
F4037.8020000000001
aF4745.3800000000001
aa(lp330
F4305.348
aF4373.2719999999999
aF9243.8050000000003
aa(lp331
F10000
aa(lp332
F4354.8459999999995
aF4754.7759999999998
aF4827.9549999999999
aa(lp333
F4809.9870000000001
aF4950.3500000000004
aa(lp334
F3683.9029999999998
aF3706.6179999999999
aF3728.4859999999999
aF3769.0920000000001
aF4006.489
aF4829.201
aF5577.4840000000004
aa(lp335
F10000
aa(lp336
F1305.7470000000001
aF3783.308
aa(lp337
F10000
aaa(lp338
(lp339
F4274.6999999999998
aF4375.451
aF4719.107
aF5600.8770000000004
aa(lp340
F4399.8190000000004
aF4636.665
aa(lp341
F4393.9179999999997
aF4636.1109999999999
aa(lp342
F4173.0479999999998
aF4325.8800000000001
aF4469.7889999999998
aF4580.3320000000003
aF4683.2200000000003
aa(lp343
F4421.4979999999996
aF4614.5479999999998
aF7509.3890000000001
aF8215.6659999999993
aF8259.9750000000004
aa(lp344
F4386.2240000000002
aF4607.8549999999996
aa(lp345
F3992.373
aF4181.3469999999998
aF4592.6940000000004
aa(lp346
F4488.9740000000002
aF4537.9809999999998
aF4741.9380000000001
aa(lp347
F4147.692
aF4736.2910000000002
aa(lp348
F4151.4489999999996
aF4734.3789999999999
aa(lp349
F4102.567
aF4413.8140000000003
aF4750.7160000000003
aa(lp350
F4077.2600000000002
aF4772.0659999999998
aa(lp351
F4316.0360000000001
aF4444.6279999999997
aF4697.549
aF4816.393
aa(lp352
F4340.1809999999996
aF4526.8069999999998
aa(lp353
F4363.6679999999997
aF4424.4129999999996
aF4787.3739999999998
aF4907.2039999999997
aF9151.7569999999996
aa(lp354
F10000
aa(lp355
F3841.4279999999999
aa(lp356
F10000
aa(lp357
F10000
aa(lp358
F10000
aaa(lp359
(lp360
F4479.5320000000002
aF4544.0590000000002
aF4873.2969999999996
aa(lp361
F2721.4189999999999
aF2947.0790000000002
aa(lp362
F4598.1400000000003
aF4741.4539999999997
aF6021.9139999999998
aa(lp363
F4597.1599999999999
aF4696.0010000000002
aa(lp364
F4582.6180000000004
aF4728.3280000000004
aa(lp365
F4569.1409999999996
aF4678.2439999999997
aF4751.7830000000004
aF4890.7309999999998
aa(lp366
F4398.2250000000004
aF4699.4809999999998
aa(lp367
F4415.1899999999996
aF4509.9229999999998
aF4688.5420000000004
aF4829.4530000000004
aa(lp368
F6909.0709999999999
aa(lp369
F4348.7110000000002
aF4803.6369999999997
aa(lp370
F4327.79
aF4814.2259999999997
aa(lp371
F3972.5590000000002
aF4380.1599999999999
aF4482.7809999999999
aF4827.723
aa(lp372
F4417.201
aF4576.0429999999997
aF4578.5360000000001
aF5296.9610000000002
aa(lp373
F10000
aa(lp374
F4401.4719999999998
aF4452.9409999999998
aF4870.018
aF4926.826
aa(lp375
F10000
aa(lp376
F10000
aa(lp377
F10000
aa(lp378
F10000
aa(lp379
F10000
aaa(lp380
(lp381
F4638.0730000000003
aF4660.9989999999998
aF4759.6279999999997
aF4876.5370000000003
aa(lp382
F4713.1930000000002
aF4877.9059999999999
aF5110.5569999999998
aF5175.0799999999999
aF6302.9129999999996
aa(lp383
F4662.9380000000001
aF4851.6239999999998
aa(lp384
F4702.7349999999997
aF4818.8239999999996
aF4875.732
aF5058.5100000000002
aF5735.8969999999999
aa(lp385
F4690.7759999999998
aF4841.4719999999998
aF5001.1840000000002
aF6487.7600000000002
aF6489.366
aF6735.6620000000003
aF7385.1459999999997
aa(lp386
F4801.46
aF4960.598
aa(lp387
F4799.6999999999998
aa(lp388
F4522.1289999999999
aF4926.8999999999996
aa(lp389
F4508.0370000000003
aF4877.9200000000001
aa(lp390
F3471.5720000000001
aF4471.9110000000001
aF4873.8599999999997
aa(lp391
F4472.9570000000003
aF4848.482
aa(lp392
F10000
aa(lp393
F10000
aa(lp394
F10000
aa(lp395
F4467.6750000000002
aF4514.1239999999998
aF4966.0699999999997
aF9743.0589999999993
aF9847.7289999999994
aa(lp396
F4954.2579999999998
aF5024.1540000000005
aa(lp397
F4393.9539999999997
aF4442.9089999999997
aF4942.8699999999999
aF4989.8540000000003
aa(lp398
F10000
aa(lp399
F10000
aa(lp400
F10000
aaa(lp401
(lp402
F4695.415
aF4802.5630000000001
aF5017.7460000000001
aF5049.3779999999997
aF5104.9480000000003
aa(lp403
F4860.0330000000004
aF5007.8580000000002
aa(lp404
F10000
aa(lp405
F4847.1869999999999
aF4948.1570000000002
aF5220.9740000000002
aa(lp406
F3221.277
aF4799.7340000000004
aF4915.5900000000001
aF4999.6790000000001
aF5070.8040000000001
aa(lp407
F4877.3249999999998
aF5070.4979999999996
aa(lp408
F5007.973
aF5057.0330000000004
aa(lp409
F4642.3239999999996
aF4797.0020000000004
aF4827.5219999999999
aF4986.4269999999997
aa(lp410
F10000
aa(lp411
F10000
aa(lp412
F3293.9479999999999
aF4599.8209999999999
aF5614.7190000000001
aa(lp413
F4912.1260000000002
aa(lp414
F4543.6540000000005
aF5311.0770000000002
aF9170.6509999999998
aa(lp415
F10000
aa(lp416
F4536.5510000000004
aF4967.1450000000004
aF5019.0360000000001
aa(lp417
F4989.098
aF5041.5950000000003
aa(lp418
F4422.4390000000003
aF4478.2969999999996
aa(lp419
F10000
aa(lp420
F10000
aa(lp421
F10000
aaa.