(lp1
(lp2
(lp3
F10000
aa(lp4
F10000
aa(lp5
F10000
aa(lp6
F10000
aa(lp7
F10000
aa(lp8
F10000
aa(lp9
F10000
aa(lp10
F10000
aa(lp11
F10000
aa(lp12
F10000
aa(lp13
F10000
aa(lp14
F10000
aa(lp15
F10000
aa(lp16
F10000
aa(lp17
F10000
aa(lp18
F10000
aa(lp19
F10000
aa(lp20
F10000
aa(lp21
F10000
aa(lp22
F10000
aa(lp23
F10000
aa(lp24
F10000
aa(lp25
F10000
aa(lp26
F10000
aa(lp27
F10000
aa(lp28
F10000
aa(lp29
F10000
aa(lp30
F10000
aa(lp31
F10000
aa(lp32
F10000
aaa(lp33
(lp34
F10000
aa(lp35
F10000
aa(lp36
F10000
aa(lp37
F10000
aa(lp38
F10000
aa(lp39
F10000
aa(lp40
F10000
aa(lp41
F10000
aa(lp42
F10000
aa(lp43
F10000
aa(lp44
F10000
aa(lp45
F10000
aa(lp46
F10000
aa(lp47
F10000
aa(lp48
F10000
aa(lp49
F10000
aa(lp50
F10000
aa(lp51
F10000
aa(lp52
F10000
aa(lp53
F10000
aa(lp54
F10000
aa(lp55
F10000
aa(lp56
F10000
aa(lp57
F10000
aa(lp58
F10000
aa(lp59
F10000
aa(lp60
F10000
aa(lp61
F10000
aa(lp62
F10000
aa(lp63
F10000
aaa(lp64
(lp65
F10000
aa(lp66
F10000
aa(lp67
F10000
aa(lp68
F708
aF1708
aF2708
aF3708
aF4708
aF5708
aF6708
aF7708
aF8708
aF9708
aa(lp69
F684
aF1684
aF2684
aF3684
aF4684
aF5684
aF6684
aF7684
aF8684
aF9684
aa(lp70
F669
aF1669
aF2669
aF3669
aF4669
aF5669
aF6669
aF7669
aF8669
aF9669
aa(lp71
F658
aF1658
aF2658
aF3658
aF4658
aF5658
aF6658
aF7658
aF8658
aF9658
aa(lp72
F649
aF1649
aF2649
aF3649
aF4649
aF5649
aF6649
aF7649
aF8649
aF9649
aa(lp73
F640
aF1640
aF2640
aF3640
aF4640
aF5640
aF6640
aF7640
aF8640
aF9640
aa(lp74
F633
aF1633
aF2633
aF3633
aF4633
aF5633
aF6633
aF7633
aF8633
aF9633
aa(lp75
F628
aF1628
aF2628
aF3628
aF4628
aF5628
aF6628
aF7628
aF8628
aF9628
aa(lp76
F10000
aa(lp77
F10000
aa(lp78
F10000
aa(lp79
F10000
aa(lp80
F10000
aa(lp81
F10000
aa(lp82
F10000
aa(lp83
F10000
aa(lp84
F10000
aa(lp85
F10000
aa(lp86
F10000
aa(lp87
F10000
aa(lp88
F10000
aa(lp89
F10000
aa(lp90
F10000
aa(lp91
F10000
aa(lp92
F10000
aa(lp93
F10000
aa(lp94
F10000
aaa(lp95
(lp96
F10000
aa(lp97
F10000
aa(lp98
F10000
aa(lp99
F710
aF1710
aF2710
aF3710
aF4710
aF5710
aF6710
aF7710
aF8710
aF9710
aa(lp100
F748
aF1748
aF2748
aF3748
aF4748
aF5748
aF6748
aF7748
aF8748
aF9748
aa(lp101
F10000
aa(lp102
F10000
aa(lp103
F10000
aa(lp104
F10000
aa(lp105
F10000
aa(lp106
F619
aF1619
aF2619
aF3619
aF4619
aF5619
aF6619
aF7619
aF8619
aF9619
aa(lp107
F612
aF1612
aF2612
aF3612
aF4612
aF5612
aF6612
aF7612
aF8612
aF9612
aa(lp108
F606
aF1606
aF2606
aF3606
aF4606
aF5606
aF6606
aF7606
aF8606
aF9606
aa(lp109
F600
aF1600
aF2600
aF3600
aF4600
aF5600
aF6600
aF7600
aF8600
aF9600
aa(lp110
F597
aF1597
aF2597
aF3597
aF4597
aF5597
aF6597
aF7597
aF8597
aF9597
aa(lp111
F10000
aa(lp112
F10000
aa(lp113
F10000
aa(lp114
F10000
aa(lp115
F10000
aa(lp116
F10000
aa(lp117
F10000
aa(lp118
F10000
aa(lp119
F10000
aa(lp120
F10000
aa(lp121
F10000
aa(lp122
F10000
aa(lp123
F10000
aa(lp124
F10000
aa(lp125
F10000
aaa(lp126
(lp127
F10000
aa(lp128
F10000
aa(lp129
F10000
aa(lp130
F10000
aa(lp131
F762
aF1762
aF2762
aF3762
aF4762
aF5762
aF6762
aF7762
aF8762
aF9762
aa(lp132
F777
aF1777
aF2777
aF3777
aF4777
aF5777
aF6777
aF7777
aF8777
aF9777
aa(lp133
F797
aF1797
aF2797
aF3797
aF4797
aF5797
aF6797
aF7797
aF8797
aF9797
aa(lp134
F10000
aa(lp135
F10000
aa(lp136
F10000
aa(lp137
F10000
aa(lp138
F10000
aa(lp139
F10000
aa(lp140
F10000
aa(lp141
F594
aF1594
aF2594
aF3594
aF4594
aF5594
aF6594
aF7594
aF8594
aF9594
aa(lp142
F588
aF1588
aF2588
aF3588
aF4588
aF5588
aF6588
aF7588
aF8588
aF9588
aa(lp143
F582
aF1582
aF2582
aF3582
aF4582
aF5582
aF6582
aF7582
aF8582
aF9582
aa(lp144
F578
aF1578
aF2578
aF3578
aF4578
aF5578
aF6578
aF7578
aF8578
aF9578
aa(lp145
F10000
aa(lp146
F10000
aa(lp147
F10000
aa(lp148
F10000
aa(lp149
F10000
aa(lp150
F10000
aa(lp151
F10000
aa(lp152
F10000
aa(lp153
F10000
aa(lp154
F10000
aa(lp155
F10000
aa(lp156
F10000
aaa(lp157
(lp158
F10000
aa(lp159
F10000
aa(lp160
F10000
aa(lp161
F10000
aa(lp162
F10000
aa(lp163
F10000
aa(lp164
F802
aF1802
aF2802
aF3802
aF4802
aF5802
aF6802
aF7802
aF8802
aF9802
aa(lp165
F814
aF1814
aF2814
aF3814
aF4814
aF5814
aF6814
aF7814
aF8814
aF9814
aa(lp166
F830
aF1830
aF2830
aF3830
aF4830
aF5830
aF6830
aF7830
aF8830
aF9830
aa(lp167
F10000
aa(lp168
F10000
aa(lp169
F10000
aa(lp170
F10000
aa(lp171
F10000
aa(lp172
F10000
aa(lp173
F10000
aa(lp174
F10000
aa(lp175
F576
aF1576
aF2576
aF3576
aF4576
aF5576
aF6576
aF7576
aF8576
aF9576
aa(lp176
F570
aF1570
aF2570
aF3570
aF4570
aF5570
aF6570
aF7570
aF8570
aF9570
aa(lp177
F564
aF1564
aF2564
aF3564
aF4564
aF5564
aF6564
aF7564
aF8564
aF9564
aa(lp178
F563
aF1563
aF2563
aF3563
aF4563
aF5563
aF6563
aF7563
aF8563
aF9563
aa(lp179
F10000
aa(lp180
F10000
aa(lp181
F10000
aa(lp182
F10000
aa(lp183
F10000
aa(lp184
F10000
aa(lp185
F10000
aa(lp186
F10000
aa(lp187
F10000
aaa(lp188
(lp189
F10000
aa(lp190
F10000
aa(lp191
F10000
aa(lp192
F10000
aa(lp193
F10000
aa(lp194
F10000
aa(lp195
F10000
aa(lp196
F10000
aa(lp197
F840
aF1840
aF2840
aF3840
aF4840
aF5840
aF6840
aF7840
aF8840
aF9840
aa(lp198
F845
aF1845
aF2845
aF3845
aF4845
aF5845
aF6845
aF7845
aF8845
aF9845
aa(lp199
F860
aF1860
aF2860
aF3860
aF4860
aF5860
aF6860
aF7860
aF8860
aF9860
aa(lp200
F10000
aa(lp201
F10000
aa(lp202
F10000
aa(lp203
F10000
aa(lp204
F10000
aa(lp205
F10000
aa(lp206
F10000
aa(lp207
F10000
aa(lp208
F10000
aa(lp209
F557
aF1557
aF2557
aF3557
aF4557
aF5557
aF6557
aF7557
aF8557
aF9557
aa(lp210
F550
aF1550
aF2550
aF3550
aF4550
aF5550
aF6550
aF7550
aF8550
aF9550
aa(lp211
F10000
aa(lp212
F10000
aa(lp213
F10000
aa(lp214
F10000
aa(lp215
F10000
aa(lp216
F10000
aa(lp217
F10000
aa(lp218
F10000
aaa(lp219
(lp220
F10000
aa(lp221
F10000
aa(lp222
F10000
aa(lp223
F10000
aa(lp224
F10000
aa(lp225
F10000
aa(lp226
F10000
aa(lp227
F10000
aa(lp228
F10000
aa(lp229
F10000
aa(lp230
F876
aF1876
aF2876
aF3876
aF4876
aF5876
aF6876
aF7876
aF8876
aF9876
aa(lp231
F892
aF1892
aF2892
aF3892
aF4892
aF5892
aF6892
aF7892
aF8892
aF9892
aa(lp232
F910
aF1910
aF2910
aF3910
aF4910
aF5910
aF6910
aF7910
aF8910
aF9910
aa(lp233
F10000
aa(lp234
F10000
aa(lp235
F10000
aa(lp236
F10000
aa(lp237
F10000
aa(lp238
F10000
aa(lp239
F10000
aa(lp240
F10000
aa(lp241
F10000
aa(lp242
F542
aF1542
aF2542
aF3542
aF4542
aF5542
aF6542
aF7542
aF8542
aF9542
aa(lp243
F538
aF1538
aF2538
aF3538
aF4538
aF5538
aF6538
aF7538
aF8538
aF9538
aa(lp244
F10000
aa(lp245
F10000
aa(lp246
F10000
aa(lp247
F10000
aa(lp248
F10000
aa(lp249
F10000
aaa(lp250
(lp251
F10000
aa(lp252
F10000
aa(lp253
F10000
aa(lp254
F10000
aa(lp255
F10000
aa(lp256
F10000
aa(lp257
F10000
aa(lp258
F10000
aa(lp259
F10000
aa(lp260
F10000
aa(lp261
F10000
aa(lp262
F10000
aa(lp263
F913
aF1913
aF2913
aF3913
aF4913
aF5913
aF6913
aF7913
aF8913
aF9913
aa(lp264
F932
aF1932
aF2932
aF3932
aF4932
aF5932
aF6932
aF7932
aF8932
aF9932
aa(lp265
F10000
aa(lp266
F10000
aa(lp267
F10000
aa(lp268
F10000
aa(lp269
F10000
aa(lp270
F10000
aa(lp271
F10000
aa(lp272
F10000
aa(lp273
F10000
aa(lp274
F533
aF1533
aF2533
aF3533
aF4533
aF5533
aF6533
aF7533
aF8533
aF9533
aa(lp275
F527
aF1527
aF2527
aF3527
aF4527
aF5527
aF6527
aF7527
aF8527
aF9527
aa(lp276
F10000
aa(lp277
F10000
aa(lp278
F10000
aa(lp279
F10000
aa(lp280
F10000
aaa(lp281
(lp282
F10000
aa(lp283
F10000
aa(lp284
F10000
aa(lp285
F10000
aa(lp286
F10000
aa(lp287
F10000
aa(lp288
F10000
aa(lp289
F10000
aa(lp290
F10000
aa(lp291
F10000
aa(lp292
F10000
aa(lp293
F10000
aa(lp294
F10000
aa(lp295
F949
aF1949
aF2949
aF3949
aF4949
aF5949
aF6949
aF7949
aF8949
aF9949
aa(lp296
F0
aF962
aF1000
aF1962
aF2000
aF2962
aF3000
aF3962
aF4000
aF4962
aF5000
aF5962
aF6000
aF6962
aF7000
aF7962
aF8000
aF8962
aF9000
aF9962
aa(lp297
F10000
aa(lp298
F10000
aa(lp299
F10000
aa(lp300
F10000
aa(lp301
F10000
aa(lp302
F10000
aa(lp303
F10000
aa(lp304
F10000
aa(lp305
F10000
aa(lp306
F520
aF1520
aF2520
aF3520
aF4520
aF5520
aF6520
aF7520
aF8520
aF9520
aa(lp307
F506
aF1506
aF2506
aF3506
aF4506
aF5506
aF6506
aF7506
aF8506
aF9506
aa(lp308
F10000
aa(lp309
F10000
aa(lp310
F10000
aa(lp311
F10000
aaa(lp312
(lp313
F10000
aa(lp314
F10000
aa(lp315
F10000
aa(lp316
F10000
aa(lp317
F10000
aa(lp318
F10000
aa(lp319
F10000
aa(lp320
F10000
aa(lp321
F10000
aa(lp322
F10000
aa(lp323
F10000
aa(lp324
F10000
aa(lp325
F10000
aa(lp326
F39
aF1039
aF2039
aF3039
aF4039
aF5039
aF6039
aF7039
aF8039
aF9039
aa(lp327
F20
aF1020
aF2020
aF3020
aF4020
aF5020
aF6020
aF7020
aF8020
aF9020
aa(lp328
F10000
aa(lp329
F10000
aa(lp330
F10000
aa(lp331
F10000
aa(lp332
F10000
aa(lp333
F10000
aa(lp334
F10000
aa(lp335
F10000
aa(lp336
F10000
aa(lp337
F10000
aa(lp338
F496
aF1496
aF2496
aF3496
aF4496
aF5496
aF6496
aF7496
aF8496
aF9496
aa(lp339
F10000
aa(lp340
F10000
aa(lp341
F10000
aa(lp342
F10000
aaa(lp343
(lp344
F10000
aa(lp345
F10000
aa(lp346
F10000
aa(lp347
F10000
aa(lp348
F10000
aa(lp349
F10000
aa(lp350
F10000
aa(lp351
F10000
aa(lp352
F10000
aa(lp353
F10000
aa(lp354
F10000
aa(lp355
F10000
aa(lp356
F69
aF1069
aF2069
aF3069
aF4069
aF5069
aF6069
aF7069
aF8069
aF9069
aa(lp357
F55
aF1055
aF2055
aF3055
aF4055
aF5055
aF6055
aF7055
aF8055
aF9055
aa(lp358
F10000
aa(lp359
F10000
aa(lp360
F10000
aa(lp361
F10000
aa(lp362
F10000
aa(lp363
F10000
aa(lp364
F10000
aa(lp365
F10000
aa(lp366
F10000
aa(lp367
F10000
aa(lp368
F10000
aa(lp369
F486
aF1486
aF2486
aF3486
aF4486
aF5486
aF6486
aF7486
aF8486
aF9486
aa(lp370
F10000
aa(lp371
F10000
aa(lp372
F10000
aa(lp373
F10000
aaa(lp374
(lp375
F10000
aa(lp376
F10000
aa(lp377
F10000
aa(lp378
F10000
aa(lp379
F10000
aa(lp380
F10000
aa(lp381
F10000
aa(lp382
F10000
aa(lp383
F10000
aa(lp384
F10000
aa(lp385
F109
aF1109
aF2109
aF3109
aF4109
aF5109
aF6109
aF7109
aF8109
aF9109
aa(lp386
F91
aF1091
aF2091
aF3091
aF4091
aF5091
aF6091
aF7091
aF8091
aF9091
aa(lp387
F90
aF1090
aF2090
aF3090
aF4090
aF5090
aF6090
aF7090
aF8090
aF9090
aa(lp388
F10000
aa(lp389
F10000
aa(lp390
F10000
aa(lp391
F10000
aa(lp392
F10000
aa(lp393
F10000
aa(lp394
F10000
aa(lp395
F10000
aa(lp396
F10000
aa(lp397
F10000
aa(lp398
F10000
aa(lp399
F475
aF1475
aF2475
aF3475
aF4475
aF5475
aF6475
aF7475
aF8475
aF9475
aa(lp400
F481
aF1481
aF2481
aF3481
aF4481
aF5481
aF6481
aF7481
aF8481
aF9481
aa(lp401
F10000
aa(lp402
F10000
aa(lp403
F10000
aa(lp404
F10000
aaa(lp405
(lp406
F10000
aa(lp407
F10000
aa(lp408
F10000
aa(lp409
F10000
aa(lp410
F10000
aa(lp411
F10000
aa(lp412
F10000
aa(lp413
F10000
aa(lp414
F156
aF1156
aF2156
aF3156
aF4156
aF5156
aF6156
aF7156
aF8156
aF9156
aa(lp415
F141
aF1141
aF2141
aF3141
aF4141
aF5141
aF6141
aF7141
aF8141
aF9141
aa(lp416
F125
aF1125
aF2125
aF3125
aF4125
aF5125
aF6125
aF7125
aF8125
aF9125
aa(lp417
F10000
aa(lp418
F10000
aa(lp419
F10000
aa(lp420
F10000
aa(lp421
F10000
aa(lp422
F10000
aa(lp423
F10000
aa(lp424
F10000
aa(lp425
F10000
aa(lp426
F10000
aa(lp427
F10000
aa(lp428
F10000
aa(lp429
F463
aF1463
aF2463
aF3463
aF4463
aF5463
aF6463
aF7463
aF8463
aF9463
aa(lp430
F468
aF1468
aF2468
aF3468
aF4468
aF5468
aF6468
aF7468
aF8468
aF9468
aa(lp431
F10000
aa(lp432
F10000
aa(lp433
F10000
aa(lp434
F10000
aa(lp435
F10000
aaa(lp436
(lp437
F10000
aa(lp438
F10000
aa(lp439
F10000
aa(lp440
F10000
aa(lp441
F10000
aa(lp442
F10000
aa(lp443
F187
aF1187
aF2187
aF3187
aF4187
aF5187
aF6187
aF7187
aF8187
aF9187
aa(lp444
F171
aF1171
aF2171
aF3171
aF4171
aF5171
aF6171
aF7171
aF8171
aF9171
aa(lp445
F159
aF1159
aF2159
aF3159
aF4159
aF5159
aF6159
aF7159
aF8159
aF9159
aa(lp446
F10000
aa(lp447
F10000
aa(lp448
F10000
aa(lp449
F10000
aa(lp450
F10000
aa(lp451
F10000
aa(lp452
F10000
aa(lp453
F10000
aa(lp454
F10000
aa(lp455
F10000
aa(lp456
F10000
aa(lp457
F10000
aa(lp458
F10000
aa(lp459
F451
aF1451
aF2451
aF3451
aF4451
aF5451
aF6451
aF7451
aF8451
aF9451
aa(lp460
F459
aF1459
aF2459
aF3459
aF4459
aF5459
aF6459
aF7459
aF8459
aF9459
aa(lp461
F10000
aa(lp462
F10000
aa(lp463
F10000
aa(lp464
F10000
aa(lp465
F10000
aa(lp466
F10000
aaa(lp467
(lp468
F10000
aa(lp469
F10000
aa(lp470
F10000
aa(lp471
F10000
aa(lp472
F224
aF1224
aF2224
aF3224
aF4224
aF5224
aF6224
aF7224
aF8224
aF9224
aa(lp473
F204
aF1204
aF2204
aF3204
aF4204
aF5204
aF6204
aF7204
aF8204
aF9204
aa(lp474
F193
aF1193
aF2193
aF3193
aF4193
aF5193
aF6193
aF7193
aF8193
aF9193
aa(lp475
F10000
aa(lp476
F10000
aa(lp477
F10000
aa(lp478
F10000
aa(lp479
F10000
aa(lp480
F10000
aa(lp481
F10000
aa(lp482
F10000
aa(lp483
F10000
aa(lp484
F10000
aa(lp485
F10000
aa(lp486
F10000
aa(lp487
F436
aF1436
aF2436
aF3436
aF4436
aF5436
aF6436
aF7436
aF8436
aF9436
aa(lp488
F437
aF1437
aF2437
aF3437
aF4437
aF5437
aF6437
aF7437
aF8437
aF9437
aa(lp489
F444
aF1444
aF2444
aF3444
aF4444
aF5444
aF6444
aF7444
aF8444
aF9444
aa(lp490
F10000
aa(lp491
F10000
aa(lp492
F10000
aa(lp493
F10000
aa(lp494
F10000
aa(lp495
F10000
aa(lp496
F10000
aa(lp497
F10000
aaa(lp498
(lp499
F10000
aa(lp500
F10000
aa(lp501
F10000
aa(lp502
F253
aF1253
aF2253
aF3253
aF4253
aF5253
aF6253
aF7253
aF8253
aF9253
aa(lp503
F227
aF1227
aF2227
aF3227
aF4227
aF5227
aF6227
aF7227
aF8227
aF9227
aa(lp504
F10000
aa(lp505
F10000
aa(lp506
F10000
aa(lp507
F10000
aa(lp508
F10000
aa(lp509
F10000
aa(lp510
F10000
aa(lp511
F10000
aa(lp512
F10000
aa(lp513
F10000
aa(lp514
F10000
aa(lp515
F418
aF1418
aF2418
aF3418
aF4418
aF5418
aF6418
aF7418
aF8418
aF9418
aa(lp516
F419
aF1419
aF2419
aF3419
aF4419
aF5419
aF6419
aF7419
aF8419
aF9419
aa(lp517
F425
aF1425
aF2425
aF3425
aF4425
aF5425
aF6425
aF7425
aF8425
aF9425
aa(lp518
F431
aF1431
aF2431
aF3431
aF4431
aF5431
aF6431
aF7431
aF8431
aF9431
aa(lp519
F10000
aa(lp520
F10000
aa(lp521
F10000
aa(lp522
F10000
aa(lp523
F10000
aa(lp524
F10000
aa(lp525
F10000
aa(lp526
F10000
aa(lp527
F10000
aa(lp528
F10000
aaa(lp529
(lp530
F10000
aa(lp531
F10000
aa(lp532
F10000
aa(lp533
F264
aF1264
aF2264
aF3264
aF4264
aF5264
aF6264
aF7264
aF8264
aF9264
aa(lp534
F293
aF1293
aF2293
aF3293
aF4293
aF5293
aF6293
aF7293
aF8293
aF9293
aa(lp535
F10000
aa(lp536
F10000
aa(lp537
F10000
aa(lp538
F10000
aa(lp539
F10000
aa(lp540
F10000
aa(lp541
F10000
aa(lp542
F389
aF1389
aF2389
aF3389
aF4389
aF5389
aF6389
aF7389
aF8389
aF9389
aa(lp543
F395
aF1395
aF2395
aF3395
aF4395
aF5395
aF6395
aF7395
aF8395
aF9395
aa(lp544
F401
aF1401
aF2401
aF3401
aF4401
aF5401
aF6401
aF7401
aF8401
aF9401
aa(lp545
F407
aF1407
aF2407
aF3407
aF4407
aF5407
aF6407
aF7407
aF8407
aF9407
aa(lp546
F413
aF1413
aF2413
aF3413
aF4413
aF5413
aF6413
aF7413
aF8413
aF9413
aa(lp547
F10000
aa(lp548
F10000
aa(lp549
F10000
aa(lp550
F10000
aa(lp551
F10000
aa(lp552
F10000
aa(lp553
F10000
aa(lp554
F10000
aa(lp555
F10000
aa(lp556
F10000
aa(lp557
F10000
aa(lp558
F10000
aa(lp559
F10000
aaa(lp560
(lp561
F10000
aa(lp562
F10000
aa(lp563
F10000
aa(lp564
F10000
aa(lp565
F311
aF1311
aF2311
aF3311
aF4311
aF5311
aF6311
aF7311
aF8311
aF9311
aa(lp566
F317
aF1317
aF2317
aF3317
aF4317
aF5317
aF6317
aF7317
aF8317
aF9317
aa(lp567
F332
aF1332
aF2332
aF3332
aF4332
aF5332
aF6332
aF7332
aF8332
aF9332
aa(lp568
F343
aF1343
aF2343
aF3343
aF4343
aF5343
aF6343
aF7343
aF8343
aF9343
aa(lp569
F352
aF1352
aF2352
aF3352
aF4352
aF5352
aF6352
aF7352
aF8352
aF9352
aa(lp570
F361
aF1361
aF2361
aF3361
aF4361
aF5361
aF6361
aF7361
aF8361
aF9361
aa(lp571
F368
aF1368
aF2368
aF3368
aF4368
aF5368
aF6368
aF7368
aF8368
aF9368
aa(lp572
F382
aF1382
aF2382
aF3382
aF4382
aF5382
aF6382
aF7382
aF8382
aF9382
aa(lp573
F10000
aa(lp574
F10000
aa(lp575
F10000
aa(lp576
F10000
aa(lp577
F10000
aa(lp578
F10000
aa(lp579
F10000
aa(lp580
F10000
aa(lp581
F10000
aa(lp582
F10000
aa(lp583
F10000
aa(lp584
F10000
aa(lp585
F10000
aa(lp586
F10000
aa(lp587
F10000
aa(lp588
F10000
aa(lp589
F10000
aa(lp590
F10000
aaa(lp591
(lp592
F10000
aa(lp593
F10000
aa(lp594
F10000
aa(lp595
F10000
aa(lp596
F10000
aa(lp597
F10000
aa(lp598
F10000
aa(lp599
F10000
aa(lp600
F10000
aa(lp601
F10000
aa(lp602
F10000
aa(lp603
F10000
aa(lp604
F10000
aa(lp605
F10000
aa(lp606
F10000
aa(lp607
F10000
aa(lp608
F10000
aa(lp609
F10000
aa(lp610
F10000
aa(lp611
F10000
aa(lp612
F10000
aa(lp613
F10000
aa(lp614
F10000
aa(lp615
F10000
aa(lp616
F10000
aa(lp617
F10000
aa(lp618
F10000
aa(lp619
F10000
aa(lp620
F10000
aa(lp621
F10000
aaa.