(lp1
(lp2
(lp3
F10000
aa(lp4
F1194.0160000000001
aa(lp5
F10000
aa(lp6
F2866.6190000000001
aa(lp7
F10000
aa(lp8
F10000
aa(lp9
F10000
aa(lp10
F10000
aa(lp11
F10000
aa(lp12
F1423.6949999999999
aa(lp13
F10000
aa(lp14
F10000
aa(lp15
F10000
aa(lp16
F4430.5820000000003
aa(lp17
F2756.1210000000001
aa(lp18
F10000
aa(lp19
F3047.1320000000001
aa(lp20
F1463.915
aa(lp21
F10000
aa(lp22
F10000
aa(lp23
F10000
aa(lp24
F10000
aa(lp25
F10000
aa(lp26
F10000
aa(lp27
F10000
aa(lp28
F10000
aa(lp29
F10000
aa(lp30
F10000
aa(lp31
F10000
aa(lp32
F10000
aa(lp33
F10000
aa(lp34
F10000
aa(lp35
F10000
aa(lp36
F10000
aa(lp37
F10000
aa(lp38
F10000
aa(lp39
F10000
aa(lp40
F1283.636
aa(lp41
F10000
aa(lp42
F4170.2060000000001
aa(lp43
F10000
aa(lp44
F10000
aa(lp45
F10000
aa(lp46
F10000
aa(lp47
F10000
aa(lp48
F10000
aa(lp49
F10000
aa(lp50
F10000
aa(lp51
F10000
aa(lp52
F4652.7250000000004
aa(lp53
F10000
aa(lp54
F10000
aa(lp55
F10000
aa(lp56
F10000
aa(lp57
F789.27599999999995
aa(lp58
F10000
aa(lp59
F10000
aa(lp60
F10000
aa(lp61
F4196.9700000000003
aF4655.9219999999996
aa(lp62
F10000
aa(lp63
F10000
aa(lp64
F10000
aa(lp65
F10000
aa(lp66
F10000
aa(lp67
F2047.9459999999999
aa(lp68
F10000
aa(lp69
F10000
aa(lp70
F10000
aa(lp71
F10000
aa(lp72
F10000
aa(lp73
F10000
aa(lp74
F10000
aa(lp75
F10000
aa(lp76
F10000
aa(lp77
F10000
aa(lp78
F10000
aa(lp79
F10000
aa(lp80
F10000
aa(lp81
F10000
aa(lp82
F10000
aa(lp83
F10000
aa(lp84
F10000
aa(lp85
F10000
aa(lp86
F10000
aa(lp87
F1839.5530000000001
aF3094.895
aF3467.3049999999998
aF4574.585
aa(lp88
F10000
aa(lp89
F10000
aa(lp90
F10000
aa(lp91
F10000
aa(lp92
F10000
aa(lp93
F10000
aa(lp94
F10000
aa(lp95
F10000
aa(lp96
F10000
aa(lp97
F10000
aa(lp98
F10000
aa(lp99
F10000
aa(lp100
F2582.3780000000002
aa(lp101
F10000
aa(lp102
F10000
aa(lp103
F10000
aa(lp104
F10000
aa(lp105
F10000
aa(lp106
F10000
aa(lp107
F10000
aa(lp108
F10000
aa(lp109
F10000
aa(lp110
F10000
aa(lp111
F10000
aa(lp112
F10000
aa(lp113
F10000
aa(lp114
F10000
aa(lp115
F10000
aa(lp116
F10000
aa(lp117
F10000
aa(lp118
F10000
aa(lp119
F10000
aa(lp120
F10000
aa(lp121
F10000
aa(lp122
F10000
aaa(lp123
(lp124
F2767.8499999999999
aa(lp125
F10000
aa(lp126
F10000
aa(lp127
F1012.796
aa(lp128
F10000
aa(lp129
F4971.0100000000002
aa(lp130
F10000
aa(lp131
F10000
aa(lp132
F3288.3539999999998
aa(lp133
F10000
aa(lp134
F10000
aa(lp135
F10000
aa(lp136
F10000
aa(lp137
F10000
aa(lp138
F10000
aa(lp139
F10000
aa(lp140
F10000
aa(lp141
F10000
aa(lp142
F10000
aa(lp143
F10000
aa(lp144
F10000
aa(lp145
F10000
aa(lp146
F10000
aa(lp147
F10000
aa(lp148
F10000
aa(lp149
F2667.509
aa(lp150
F10000
aa(lp151
F10000
aa(lp152
F10000
aa(lp153
F10000
aa(lp154
F10000
aa(lp155
F10000
aa(lp156
F10000
aa(lp157
F10000
aa(lp158
F3778.7420000000002
aa(lp159
F10000
aa(lp160
F10000
aa(lp161
F3087.6039999999998
aa(lp162
F10000
aa(lp163
F10000
aa(lp164
F10000
aa(lp165
F10000
aa(lp166
F10000
aa(lp167
F10000
aa(lp168
F10000
aa(lp169
F10000
aa(lp170
F10000
aa(lp171
F10000
aa(lp172
F10000
aa(lp173
F10000
aa(lp174
F10000
aa(lp175
F10000
aa(lp176
F10000
aa(lp177
F10000
aa(lp178
F10000
aa(lp179
F10000
aa(lp180
F10000
aa(lp181
F10000
aa(lp182
F10000
aa(lp183
F10000
aa(lp184
F10000
aa(lp185
F381.63999999999999
aF670.64499999999998
aF707.76599999999996
aF1223.306
aF1234.278
aF1254.9849999999999
aF1260.338
aF1510.931
aF1532.8309999999999
aF1553.9929999999999
aF1811.9949999999999
aF2016.0409999999999
aF2036.7550000000001
aF2062.8739999999998
aF2149.6109999999999
aF2176.8870000000002
aF2186.4119999999998
aF2363.069
aF2437.5880000000002
aF2512.7399999999998
aF2638.2460000000001
aF2663.489
aF2884.1480000000001
aF3180.71
aF3185.8400000000001
aF3272.8879999999999
aF3492.538
aF3642.6729999999998
aF3767.509
aF4170.7659999999996
aF4329.1009999999997
aF4344.8440000000001
aF4570.8029999999999
aF4621.134
aF4772.433
aF4846.6850000000004
aF4896.5079999999998
aa(lp186
F10000
aa(lp187
F10000
aa(lp188
F10000
aa(lp189
F10000
aa(lp190
F10000
aa(lp191
F10000
aa(lp192
F10000
aa(lp193
F10000
aa(lp194
F10000
aa(lp195
F10000
aa(lp196
F10000
aa(lp197
F10000
aa(lp198
F10000
aa(lp199
F10000
aa(lp200
F10000
aa(lp201
F10000
aa(lp202
F10000
aa(lp203
F10000
aa(lp204
F10000
aa(lp205
F10000
aa(lp206
F10000
aa(lp207
F2362.7600000000002
aF4921.0119999999997
aa(lp208
F10000
aa(lp209
F10000
aa(lp210
F10000
aa(lp211
F3464.0039999999999
aa(lp212
F10000
aa(lp213
F10000
aa(lp214
F10000
aa(lp215
F10000
aa(lp216
F10000
aa(lp217
F10000
aa(lp218
F10000
aa(lp219
F10000
aa(lp220
F10000
aa(lp221
F10000
aa(lp222
F10000
aa(lp223
F2231.1990000000001
aa(lp224
F10000
aa(lp225
F10000
aa(lp226
F10000
aa(lp227
F10000
aa(lp228
F10000
aa(lp229
F10000
aa(lp230
F10000
aa(lp231
F10000
aa(lp232
F10000
aa(lp233
F10000
aa(lp234
F10000
aa(lp235
F10000
aa(lp236
F10000
aa(lp237
F2912.9659999999999
aa(lp238
F10000
aa(lp239
F10000
aa(lp240
F10000
aa(lp241
F10000
aa(lp242
F10000
aa(lp243
F10000
aaa(lp244
(lp245
F2507.1729999999998
aa(lp246
F10000
aa(lp247
F10000
aa(lp248
F10000
aa(lp249
F10000
aa(lp250
F1675.068
aa(lp251
F10000
aa(lp252
F10000
aa(lp253
F10000
aa(lp254
F10000
aa(lp255
F10000
aa(lp256
F10000
aa(lp257
F10000
aa(lp258
F10000
aa(lp259
F4369.5940000000001
aa(lp260
F10000
aa(lp261
F10000
aa(lp262
F10000
aa(lp263
F10000
aa(lp264
F10000
aa(lp265
F10000
aa(lp266
F10000
aa(lp267
F10000
aa(lp268
F2145.9110000000001
aa(lp269
F10000
aa(lp270
F10000
aa(lp271
F10000
aa(lp272
F10000
aa(lp273
F10000
aa(lp274
F10000
aa(lp275
F10000
aa(lp276
F2686.0349999999999
aa(lp277
F10000
aa(lp278
F10000
aa(lp279
F10000
aa(lp280
F381.80700000000002
aa(lp281
F10000
aa(lp282
F10000
aa(lp283
F10000
aa(lp284
F10000
aa(lp285
F10000
aa(lp286
F10000
aa(lp287
F10000
aa(lp288
F10000
aa(lp289
F10000
aa(lp290
F10000
aa(lp291
F10000
aa(lp292
F3674.7539999999999
aa(lp293
F10000
aa(lp294
F10000
aa(lp295
F10000
aa(lp296
F10000
aa(lp297
F10000
aa(lp298
F1904.55
aF1908.296
aF1938.662
aF2181.6039999999998
aF2220.636
aF2661.134
aa(lp299
F3299.3789999999999
aa(lp300
F10000
aa(lp301
F10000
aa(lp302
F1544.8589999999999
aF1810.674
aF2721.8919999999998
aa(lp303
F10000
aa(lp304
F10000
aa(lp305
F10000
aa(lp306
F310.16500000000002
aF431.642
aF459.84199999999998
aF582.54600000000005
aF710.60699999999997
aF806.34799999999996
aF876.096
aF1063.413
aF1122.181
aF1137.788
aF1185.373
aF1272.3340000000001
aF1448
aF1483.8720000000001
aF1534.9449999999999
aF1641.779
aF1685.0139999999999
aF1721.0219999999999
aF1952.5519999999999
aF2202.116
aF2212.402
aF2263.4349999999999
aF2499.1280000000002
aF2654.1700000000001
aF2660.1289999999999
aF2912.701
aF2949.8879999999999
aF3341.402
aF3429.2179999999998
aF3575.192
aF3742.3760000000002
aF3822.346
aF3988.4969999999998
aF4097.2349999999997
aF4406.2910000000002
aa(lp307
F506.67000000000002
aF631.68899999999996
aF683.54600000000005
aF1008.193
aF1084.7550000000001
aF1133.6279999999999
aF1137.8219999999999
aF1308.855
aF2338.3629999999998
aF2837.8290000000002
aF3397.1640000000002
aF3709.5329999999999
aF3843.346
aF4091.8670000000002
aF4360.3890000000001
aF4394.6379999999999
aF4420.8940000000002
aF5071.125
aF5093.6450000000004
aa(lp308
F10000
aa(lp309
F10000
aa(lp310
F10000
aa(lp311
F10000
aa(lp312
F10000
aa(lp313
F10000
aa(lp314
F10000
aa(lp315
F10000
aa(lp316
F10000
aa(lp317
F10000
aa(lp318
F10000
aa(lp319
F10000
aa(lp320
F10000
aa(lp321
F10000
aa(lp322
F10000
aa(lp323
F10000
aa(lp324
F10000
aa(lp325
F3667.3029999999999
aa(lp326
F707.76900000000001
aF985.29700000000003
aF1671.7180000000001
aF2282.364
aF2312.989
aF2453.6590000000001
aF3459.5749999999998
aF3543.5929999999998
aF4473.3950000000004
aF5247.7110000000002
aa(lp327
F2437.402
aF2733.3330000000001
aa(lp328
F689.31100000000004
aF1686.0360000000001
aF2774.451
aF2839.4180000000001
aF3190.0549999999998
aF3340.5659999999998
aF3567.2190000000001
aF4369.0330000000004
aF5068.5820000000003
aa(lp329
F255.30799999999999
aF608.54899999999998
aF654.99099999999999
aF1184.5709999999999
aF1235.1949999999999
aF1259.277
aF1736.761
aF1751.4739999999999
aF1986.1610000000001
aF2137.0929999999998
aF2327.7910000000002
aF2468.7399999999998
aF2488.4140000000002
aF2739.2539999999999
aF2789.4780000000001
aF2916.3629999999998
aF2941.7150000000001
aF3105.46
aF3490.3829999999998
aF3792.6689999999999
aF3918.0340000000001
aF3921.8820000000001
aF4092.71
aF4237.7219999999998
aF4259.7489999999998
aF4527.4989999999998
aF4777.3649999999998
aa(lp330
F10000
aa(lp331
F10000
aa(lp332
F3720.4000000000001
aa(lp333
F10000
aa(lp334
F10000
aa(lp335
F3372.1570000000002
aa(lp336
F2432.3380000000002
aF2472.096
aa(lp337
F10000
aa(lp338
F4804.1959999999999
aa(lp339
F10000
aa(lp340
F10000
aa(lp341
F10000
aa(lp342
F10000
aa(lp343
F10000
aa(lp344
F10000
aa(lp345
F10000
aa(lp346
F10000
aa(lp347
F10000
aa(lp348
F10000
aa(lp349
F10000
aa(lp350
F10000
aa(lp351
F10000
aa(lp352
F3083.7559999999999
aa(lp353
F10000
aa(lp354
F10000
aa(lp355
F10000
aa(lp356
F10000
aa(lp357
F10000
aa(lp358
F10000
aa(lp359
F10000
aa(lp360
F10000
aa(lp361
F10000
aa(lp362
F3464.107
aa(lp363
F10000
aa(lp364
F10000
aaa(lp365
(lp366
F10000
aa(lp367
F4580.0469999999996
aa(lp368
F10000
aa(lp369
F10000
aa(lp370
F10000
aa(lp371
F10000
aa(lp372
F10000
aa(lp373
F1874.991
aa(lp374
F10000
aa(lp375
F10000
aa(lp376
F10000
aa(lp377
F10000
aa(lp378
F10000
aa(lp379
F10000
aa(lp380
F1925.4300000000001
aa(lp381
F10000
aa(lp382
F10000
aa(lp383
F10000
aa(lp384
F10000
aa(lp385
F10000
aa(lp386
F10000
aa(lp387
F10000
aa(lp388
F2506.5639999999999
aa(lp389
F10000
aa(lp390
F10000
aa(lp391
F10000
aa(lp392
F10000
aa(lp393
F10000
aa(lp394
F10000
aa(lp395
F10000
aa(lp396
F10000
aa(lp397
F10000
aa(lp398
F4720.6580000000004
aa(lp399
F10000
aa(lp400
F10000
aa(lp401
F10000
aa(lp402
F10000
aa(lp403
F10000
aa(lp404
F10000
aa(lp405
F10000
aa(lp406
F10000
aa(lp407
F10000
aa(lp408
F10000
aa(lp409
F10000
aa(lp410
F10000
aa(lp411
F10000
aa(lp412
F2086.2779999999998
aF2110.453
aa(lp413
F2982.308
aa(lp414
F10000
aa(lp415
F10000
aa(lp416
F10000
aa(lp417
F10000
aa(lp418
F1095.8199999999999
aa(lp419
F525.88599999999997
aF528.68799999999999
aF4664.4560000000001
aF4781.7179999999998
aF4795.473
aF4816.3670000000002
aF4820.6409999999996
aF4922.0209999999997
aF4946.8180000000002
aF4957.1049999999996
aF4961.759
aF5217.5050000000001
aF5228.0810000000001
aa(lp420
F10000
aa(lp421
F708.85500000000002
aF1668.5799999999999
aF1673.941
aF1677.9559999999999
aa(lp422
F10000
aa(lp423
F10000
aa(lp424
F1454.193
aa(lp425
F10000
aa(lp426
F10000
aa(lp427
F482.37799999999999
aF833.29899999999998
aF854.51999999999998
aF1283.521
aF1903.761
aF3419.3310000000001
aF4243.5029999999997
aF4369.9449999999997
aF4379.5299999999997
aF4800.2470000000003
aa(lp428
F10000
aa(lp429
F10000
aa(lp430
F10000
aa(lp431
F10000
aa(lp432
F10000
aa(lp433
F10000
aa(lp434
F10000
aa(lp435
F10000
aa(lp436
F10000
aa(lp437
F10000
aa(lp438
F10000
aa(lp439
F10000
aa(lp440
F10000
aa(lp441
F10000
aa(lp442
F10000
aa(lp443
F10000
aa(lp444
F10000
aa(lp445
F331.536
aF1718.981
aF3516.8130000000001
aF4483.8639999999996
aa(lp446
F10000
aa(lp447
F230.24799999999999
aF2657.9549999999999
aF2865.2190000000001
aF4575.9080000000004
aF4998.9210000000003
aa(lp448
F2262.7440000000001
aF3817.4029999999998
aF4111.2659999999996
aF4845.96
aa(lp449
F481.42200000000003
aF4947.2219999999998
aa(lp450
F1563.912
aF2014.9590000000001
aF3066.2750000000001
aF4642.2120000000004
aa(lp451
F10000
aa(lp452
F10000
aa(lp453
F10000
aa(lp454
F1449.8299999999999
aa(lp455
F10000
aa(lp456
F10000
aa(lp457
F10000
aa(lp458
F10000
aa(lp459
F10000
aa(lp460
F10000
aa(lp461
F10000
aa(lp462
F10000
aa(lp463
F10000
aa(lp464
F10000
aa(lp465
F10000
aa(lp466
F526.02300000000002
aF529.774
aF1003.265
aF1076.415
aF1146.8679999999999
aF1344.6500000000001
aF1370.0150000000001
aF1795.1610000000001
aF1799.818
aF2228.0279999999998
aF2364.0030000000002
aF2368.2930000000001
aF2406.5790000000002
aF2459.3049999999998
aF2549.1930000000002
aF2654.27
aF2657.9209999999998
aF2793.7930000000001
aF2809.1010000000001
aF2846.232
aF3260.7979999999998
aF3721.1030000000001
aF4951.067
aF4954.0140000000001
aa(lp467
F10000
aa(lp468
F1738.453
aa(lp469
F795.13099999999997
aa(lp470
F10000
aa(lp471
F10000
aa(lp472
F10000
aa(lp473
F10000
aa(lp474
F10000
aa(lp475
F10000
aa(lp476
F10000
aa(lp477
F10000
aa(lp478
F10000
aa(lp479
F10000
aa(lp480
F10000
aa(lp481
F347.99200000000002
aa(lp482
F10000
aa(lp483
F10000
aa(lp484
F1480.098
aa(lp485
F10000
aaa(lp486
(lp487
F1503.7750000000001
aa(lp488
F3979.0999999999999
aa(lp489
F10000
aa(lp490
F10000
aa(lp491
F4709.7759999999998
aa(lp492
F10000
aa(lp493
F10000
aa(lp494
F1304.2550000000001
aa(lp495
F10000
aa(lp496
F10000
aa(lp497
F10000
aa(lp498
F10000
aa(lp499
F10000
aa(lp500
F10000
aa(lp501
F10000
aa(lp502
F10000
aa(lp503
F10000
aa(lp504
F10000
aa(lp505
F10000
aa(lp506
F10000
aa(lp507
F10000
aa(lp508
F3357.855
aa(lp509
F10000
aa(lp510
F4120.3339999999998
aa(lp511
F4440.8710000000001
aa(lp512
F3547.614
aa(lp513
F10000
aa(lp514
F10000
aa(lp515
F10000
aa(lp516
F10000
aa(lp517
F10000
aa(lp518
F10000
aa(lp519
F10000
aa(lp520
F10000
aa(lp521
F10000
aa(lp522
F10000
aa(lp523
F10000
aa(lp524
F10000
aa(lp525
F10000
aa(lp526
F10000
aa(lp527
F10000
aa(lp528
F10000
aa(lp529
F10000
aa(lp530
F1144.7059999999999
aF1309.5719999999999
aa(lp531
F10000
aa(lp532
F10000
aa(lp533
F3745.0619999999999
aa(lp534
F10000
aa(lp535
F10000
aa(lp536
F10000
aa(lp537
F10000
aa(lp538
F10000
aa(lp539
F10000
aa(lp540
F347.82600000000002
aF358.10300000000001
aF492.77300000000002
aF497.03100000000001
aF501.26999999999998
aF521.93799999999999
aF1144.357
aF1147.9949999999999
aF1152.855
aF1159.652
aF1297.884
aF1418.029
aF1422.9259999999999
aF1427.615
aF1454.953
aF1459.9280000000001
aF1470.1890000000001
aa(lp541
F10000
aa(lp542
F2718.259
aF2720.9360000000001
aF2849.087
aF3136.4929999999999
aF3142.4699999999998
aF3401.5889999999999
aF3419.335
aF3422.451
aF3438.8679999999999
aa(lp543
F10000
aa(lp544
F10000
aa(lp545
F10000
aa(lp546
F10000
aa(lp547
F10000
aa(lp548
F10000
aa(lp549
F10000
aa(lp550
F10000
aa(lp551
F10000
aa(lp552
F10000
aa(lp553
F10000
aa(lp554
F10000
aa(lp555
F10000
aa(lp556
F10000
aa(lp557
F10000
aa(lp558
F10000
aa(lp559
F10000
aa(lp560
F10000
aa(lp561
F10000
aa(lp562
F10000
aa(lp563
F10000
aa(lp564
F631.447
aa(lp565
F10000
aa(lp566
F4840.3209999999999
aF5197.5159999999996
aa(lp567
F10000
aa(lp568
F642.12900000000002
aa(lp569
F256.61000000000001
aF738.43600000000004
aF883.78499999999997
aF1761.6769999999999
aF3214.8209999999999
aF3291.1680000000001
aF3316.027
aF4595.5699999999997
aF5222.7809999999999
aa(lp570
F568.09400000000005
aF1285.3050000000001
aF1333.2719999999999
aF2387.9290000000001
aF2589.5360000000001
aF2789.2550000000001
aF2915.1089999999999
aF3215.7959999999998
aF3541.0990000000002
aF4420.6090000000004
aF4721.915
aa(lp571
F10000
aa(lp572
F10000
aa(lp573
F10000
aa(lp574
F10000
aa(lp575
F10000
aa(lp576
F10000
aa(lp577
F10000
aa(lp578
F3420.3530000000001
aa(lp579
F446.666
aa(lp580
F10000
aa(lp581
F10000
aa(lp582
F10000
aa(lp583
F10000
aa(lp584
F10000
aa(lp585
F10000
aa(lp586
F10000
aa(lp587
F536.91800000000001
aF1177.973
aF3836.9059999999999
aF3840.3679999999999
aF3847.4000000000001
aF5235.7709999999997
aa(lp588
F10000
aa(lp589
F10000
aa(lp590
F10000
aa(lp591
F3573.2069999999999
aa(lp592
F10000
aa(lp593
F10000
aa(lp594
F10000
aa(lp595
F10000
aa(lp596
F10000
aa(lp597
F10000
aa(lp598
F10000
aa(lp599
F10000
aa(lp600
F10000
aa(lp601
F10000
aa(lp602
F10000
aa(lp603
F10000
aa(lp604
F10000
aa(lp605
F10000
aa(lp606
F10000
aaa(lp607
(lp608
F10000
aa(lp609
F2205.5500000000002
aa(lp610
F3689.0010000000002
aa(lp611
F10000
aa(lp612
F10000
aa(lp613
F10000
aa(lp614
F10000
aa(lp615
F10000
aa(lp616
F10000
aa(lp617
F10000
aa(lp618
F10000
aa(lp619
F10000
aa(lp620
F1354.049
aa(lp621
F10000
aa(lp622
F10000
aa(lp623
F10000
aa(lp624
F10000
aa(lp625
F10000
aa(lp626
F10000
aa(lp627
F10000
aa(lp628
F10000
aa(lp629
F10000
aa(lp630
F10000
aa(lp631
F4029.069
aa(lp632
F10000
aa(lp633
F10000
aa(lp634
F4850.2120000000004
aa(lp635
F10000
aa(lp636
F10000
aa(lp637
F10000
aa(lp638
F10000
aa(lp639
F10000
aa(lp640
F10000
aa(lp641
F10000
aa(lp642
F10000
aa(lp643
F10000
aa(lp644
F10000
aa(lp645
F10000
aa(lp646
F10000
aa(lp647
F10000
aa(lp648
F10000
aa(lp649
F10000
aa(lp650
F10000
aa(lp651
F10000
aa(lp652
F10000
aa(lp653
F10000
aa(lp654
F10000
aa(lp655
F10000
aa(lp656
F10000
aa(lp657
F10000
aa(lp658
F10000
aa(lp659
F10000
aa(lp660
F10000
aa(lp661
F10000
aa(lp662
F10000
aa(lp663
F10000
aa(lp664
F286.02199999999999
aF834.29100000000005
aF837.02700000000004
aF2075.855
aF2078.6109999999999
aF2085.607
aF2509.4589999999998
aF2517.2649999999999
aF2525.9960000000001
aF2529.8649999999998
aF2951.23
aF2956.2570000000001
aF2961.1570000000002
aF2991.2240000000002
aF3572.221
aF3843.0250000000001
aa(lp665
F10000
aa(lp666
F10000
aa(lp667
F10000
aa(lp668
F1144.1969999999999
aa(lp669
F281.15899999999999
aF1432.748
aF1743.338
aF2526.8980000000001
aF3398.0459999999998
aF3817.9760000000001
aF3828.268
aF4068.5859999999998
aa(lp670
F10000
aa(lp671
F784.88199999999995
aa(lp672
F2487.855
aa(lp673
F10000
aa(lp674
F10000
aa(lp675
F10000
aa(lp676
F10000
aa(lp677
F10000
aa(lp678
F10000
aa(lp679
F10000
aa(lp680
F10000
aa(lp681
F10000
aa(lp682
F2418.6419999999998
aa(lp683
F10000
aa(lp684
F2940.5940000000001
aa(lp685
F10000
aa(lp686
F414.25799999999998
aF1033.8599999999999
aF2437.9760000000001
aa(lp687
F1862.2860000000001
aF3066.0540000000001
aa(lp688
F1634.0889999999999
aF3163.5770000000002
aF4042.7280000000001
aa(lp689
F509.60700000000003
aF1310.8409999999999
aF1560.3969999999999
aF2374.4400000000001
aF4690.9920000000002
aa(lp690
F1261.3589999999999
aF1786.6110000000001
aF2087.346
aF3517.3499999999999
aF3592.6889999999999
aF5235.0860000000002
aa(lp691
F506.32499999999999
aF556.83699999999999
aF711.03300000000002
aF1083.961
aF1510.213
aF2564.8600000000001
aF3165.1570000000002
aF3842.0909999999999
aF3844.134
aF4144.8580000000002
aF4997.9809999999998
aF5138.0140000000001
aF5238.8990000000003
aa(lp692
F10000
aa(lp693
F10000
aa(lp694
F10000
aa(lp695
F10000
aa(lp696
F10000
aa(lp697
F10000
aa(lp698
F3405.9200000000001
aa(lp699
F10000
aa(lp700
F10000
aa(lp701
F10000
aa(lp702
F10000
aa(lp703
F1420.711
aa(lp704
F10000
aa(lp705
F10000
aa(lp706
F10000
aa(lp707
F10000
aa(lp708
F10000
aa(lp709
F10000
aa(lp710
F10000
aa(lp711
F10000
aa(lp712
F10000
aa(lp713
F10000
aa(lp714
F10000
aa(lp715
F10000
aa(lp716
F10000
aa(lp717
F1911.864
aa(lp718
F10000
aa(lp719
F10000
aa(lp720
F10000
aa(lp721
F10000
aa(lp722
F10000
aa(lp723
F10000
aa(lp724
F10000
aa(lp725
F10000
aa(lp726
F10000
aa(lp727
F10000
aaa(lp728
(lp729
F10000
aa(lp730
F10000
aa(lp731
F10000
aa(lp732
F10000
aa(lp733
F10000
aa(lp734
F10000
aa(lp735
F10000
aa(lp736
F10000
aa(lp737
F4300.04
aa(lp738
F10000
aa(lp739
F10000
aa(lp740
F10000
aa(lp741
F10000
aa(lp742
F10000
aa(lp743
F10000
aa(lp744
F3989.0300000000002
aa(lp745
F10000
aa(lp746
F10000
aa(lp747
F10000
aa(lp748
F10000
aa(lp749
F10000
aa(lp750
F1654.335
aa(lp751
F10000
aa(lp752
F10000
aa(lp753
F10000
aa(lp754
F864.38800000000003
aa(lp755
F10000
aa(lp756
F792.80700000000002
aa(lp757
F10000
aa(lp758
F10000
aa(lp759
F10000
aa(lp760
F2435.9380000000001
aa(lp761
F10000
aa(lp762
F10000
aa(lp763
F10000
aa(lp764
F10000
aa(lp765
F10000
aa(lp766
F10000
aa(lp767
F10000
aa(lp768
F10000
aa(lp769
F10000
aa(lp770
F10000
aa(lp771
F448.91800000000001
aa(lp772
F10000
aa(lp773
F10000
aa(lp774
F10000
aa(lp775
F10000
aa(lp776
F10000
aa(lp777
F10000
aa(lp778
F2667.0749999999998
aa(lp779
F10000
aa(lp780
F10000
aa(lp781
F10000
aa(lp782
F232.93799999999999
aF244.946
aF262.34800000000001
aF272.88200000000001
aF283.59399999999999
aF297.42899999999997
aF330.68900000000002
aF354.82799999999997
aF369.10000000000002
aF373.358
aF394.65699999999998
aF422.29599999999999
aF447.07299999999998
aF454.87400000000002
aF468.49099999999999
aF479.065
aF517.87199999999996
aF568.85699999999997
aF582.74800000000005
aF593.71199999999999
aF617.96799999999996
aF642.10699999999997
aF652.79100000000005
aF667.95899999999995
aF678.34000000000003
aF692.654
aF703.00900000000001
aF721.00999999999999
aF732.41600000000005
aF753.65599999999995
aF767.55899999999997
aF791.5
aF796.21000000000004
aF807.18200000000002
aF817.82299999999998
aF826.35699999999997
aF840.39800000000002
aF870.52999999999997
aF881.75900000000001
aF892.92600000000004
aF903.53899999999999
aF914.98900000000003
aF925.60699999999997
aF957.14800000000002
aF967.67200000000003
aF978.07600000000002
aF991.226
aF1030.835
aF1041.991
aF1053.202
aF1157.463
aF1164.204
aF1189.1610000000001
aF1202.8409999999999
aF1206.432
aF1224.5170000000001
aF1238.7439999999999
aF1249.3620000000001
aF1276.8510000000001
aF1338.3009999999999
aF1353.9549999999999
aF1363.462
aF1399.117
aF1412.296
aF1438.5619999999999
aF1448.8309999999999
aF1463.3610000000001
aF1473.9880000000001
aF1490.2619999999999
aF1502.97
aF1513.6590000000001
aF1524.104
aF1535.0519999999999
aF1548.742
aF1557.3219999999999
aF1560.4580000000001
aF1577.402
aF1585.3320000000001
aF1598.9970000000001
aF1609.7460000000001
aF1624.24
aF1635.835
aF1663.711
aF1674.1600000000001
aF1695.4870000000001
aF1709.3499999999999
aF1721.3040000000001
aF1728.518
aF1733.4349999999999
aF1749.1679999999999
aF1759.9780000000001
aF1770.425
aF1773.8710000000001
aF1796.0239999999999
aF1813.5809999999999
aF1824.0239999999999
aF1846.2070000000001
aF1859.2470000000001
aF1888.902
aF1898.816
aF1934.482
aF1945.806
aF2021.6969999999999
aF2027.8299999999999
aF2032.876
aF2045.826
aF2060.0140000000001
aF2095.3420000000001
aF2118.8980000000001
aF2124.2689999999998
aF2193.1080000000002
aF2242.393
aF2266.1970000000001
aF2268.9780000000001
aF2281.4780000000001
aF2284.7739999999999
aF2294.9960000000001
aF2306.7530000000002
aF2317.857
aF2361.7469999999998
aF2368.3589999999999
aF2392.5810000000001
aF2404.7779999999998
aF2417.0680000000002
aF2456.4949999999999
aF2467.7919999999999
aF2521.23
aF2543.1179999999999
aF2564.4360000000001
aF2567.1190000000001
aF2579.0129999999999
aF2594.8389999999999
aF2618.4290000000001
aF2654.2890000000002
aF2693.462
aF2703.9520000000002
aF2715.049
aF2729.1149999999998
aF2739.6390000000001
aF2758.067
aF2768.7550000000001
aF2780.1129999999998
aF2790.511
aF2801.8519999999999
aF2815.1660000000002
aF2826.5329999999999
aF2840.3939999999998
aF2851.0949999999998
aF2865.232
aF2888.4299999999998
aF2901.7130000000002
aF2919.2669999999998
aF2929.913
aF2940.8760000000002
aF2951.694
aF2962.087
aF2965.431
aF3001.681
aF3016.2719999999999
aF3026.6129999999998
aF3037.6289999999999
aF3072.6399999999999
aF3076.9189999999999
aF3102.1729999999998
aF3112.3510000000001
aF3126.46
aF3136.4279999999999
aF3146.5709999999999
aF3149.7080000000001
aF3166.529
aF3188.547
aF3210.8939999999998
aF3230.9920000000002
aF3242.085
aF3251.9180000000001
aF3263.3609999999999
aF3285.2260000000001
aF3303.3899999999999
aF3327.9850000000001
aF3339.0390000000002
aF3350.2570000000001
aF3360.3719999999998
aF3372.866
aF3385.2489999999998
aF3413.3890000000001
aF3435.1840000000002
aF3460.3240000000001
aF3474.8409999999999
aF3484.3290000000002
aF3489.9029999999998
aF3500.3600000000001
aF3511.1100000000001
aF3533.5279999999998
aF3564.7849999999999
aF3575.299
aF3583.7049999999999
aF3597.3649999999998
aF3609.7170000000001
aF3613.3879999999999
aF3621.8719999999998
aF3633.232
aF3651.386
aF3661.8090000000002
aF3683.7820000000002
aF3725.9740000000002
aF3773.2020000000002
aF3818.4720000000002
aF3834.0549999999998
aF3844.8380000000002
aF3848.4839999999999
aF3856.6610000000001
aF3896.183
aF3920.942
aF3945.625
aF3984.7249999999999
aF3995.9830000000002
aF4006.8989999999999
aF4018.1669999999999
aF4031.7800000000002
aF4060.5859999999998
aF4072.0509999999999
aF4082.529
aF4104.4889999999996
aF4119.0550000000003
aF4147.3590000000004
aF4154.7849999999999
aF4169.0140000000001
aF4204.5820000000003
aF4217.9809999999998
aF4223.2479999999996
aF4254.759
aF4266.5950000000003
aF4279.8900000000003
aF4304.9430000000002
aF4315.8320000000003
aF4331.1049999999996
aF4352.4650000000001
aF4377.7730000000001
aF4405.5879999999997
aF4417.0630000000001
aF4421.3299999999999
aF4428.8400000000001
aF4442.2479999999996
aF4452.9049999999997
aF4471.3149999999996
aF4515.1700000000001
aF4528.652
aF4557.9880000000003
aF4568.3950000000004
aF4579.2439999999997
aF4589.8620000000001
aF4634.8999999999996
aF4644.2070000000003
aF4655.1679999999997
aF4676.817
aF4690.6120000000001
aF4702.0299999999997
aF4727.2809999999999
aF4763.1379999999999
aF4774.5190000000002
aF4788.3540000000003
aF4838.8000000000002
aF4874.7039999999997
aF4892.9769999999999
aF4903.9690000000001
aF4915.1120000000001
aF4950.4480000000003
aF4982.7780000000002
aF4990.4880000000003
aF5001.3360000000002
aF5023.4269999999997
aF5037.8680000000004
aF5065.75
aF5076.723
aF5098.2960000000003
aF5124.232
aF5145.509
aF5163.6289999999999
aF5185.5600000000004
aF5196.1999999999998
aF5211.3010000000004
aF5224.9110000000001
aF5235.8829999999998
aF5250.2479999999996
aF5272.8639999999996
aa(lp783
F332.35899999999998
aF336.815
aF346.58800000000002
aF357.77499999999998
aa(lp784
F3782.7440000000001
aF3803.886
aF3900.3400000000001
aF3910.2660000000001
aF3913.9259999999999
aF3923.1350000000002
aF4009.8299999999999
aa(lp785
F1729.453
aF1733.124
aF1737.4200000000001
aF1746.7080000000001
aa(lp786
F10000
aa(lp787
F10000
aa(lp788
F10000
aa(lp789
F10000
aa(lp790
F10000
aa(lp791
F305.41300000000001
aF2386.6790000000001
aa(lp792
F10000
aa(lp793
F10000
aa(lp794
F381.21100000000001
aF556.88400000000001
aa(lp795
F5046.6000000000004
aa(lp796
F10000
aa(lp797
F247.99700000000001
aF1515.6030000000001
aF2008.4670000000001
aF2550.3510000000001
aa(lp798
F531.63599999999997
aF2410.0500000000002
aa(lp799
F10000
aa(lp800
F3407.462
aa(lp801
F10000
aa(lp802
F3978.174
aa(lp803
F682.11400000000003
aF1609.771
aF1860.636
aF4675.4250000000002
aa(lp804
F3090.8200000000002
aF4194.7370000000001
aa(lp805
F5148.0140000000001
aa(lp806
F530.37400000000002
aF1082.6900000000001
aF3189.944
aa(lp807
F2689.9760000000001
aa(lp808
F232.745
aF1334.181
aF1837.7180000000001
aF2438.2080000000001
aF2814.3389999999999
aF4393.6459999999997
aF4544.9880000000003
aa(lp809
F681.75699999999995
aF1961.337
aF2363.4870000000001
aF3541.3870000000002
aa(lp810
F832.88999999999999
aF982.37099999999998
aF1457.9680000000001
aF2508.6970000000001
aF3011.3620000000001
aF4544.4639999999999
aF4896.9470000000001
aa(lp811
F506.20400000000001
aF2387.8490000000002
aa(lp812
F4543.2920000000004
aa(lp813
F10000
aa(lp814
F1008.931
aa(lp815
F10000
aa(lp816
F10000
aa(lp817
F10000
aa(lp818
F10000
aa(lp819
F10000
aa(lp820
F10000
aa(lp821
F10000
aa(lp822
F10000
aa(lp823
F10000
aa(lp824
F10000
aa(lp825
F10000
aa(lp826
F10000
aa(lp827
F10000
aa(lp828
F1217.4929999999999
aa(lp829
F10000
aa(lp830
F10000
aa(lp831
F10000
aa(lp832
F10000
aa(lp833
F10000
aa(lp834
F10000
aa(lp835
F10000
aa(lp836
F10000
aa(lp837
F10000
aa(lp838
F10000
aa(lp839
F10000
aa(lp840
F10000
aa(lp841
F10000
aa(lp842
F10000
aa(lp843
F1891.713
aa(lp844
F4635.192
aa(lp845
F10000
aa(lp846
F10000
aa(lp847
F1190.163
aa(lp848
F10000
aaa(lp849
(lp850
F10000
aa(lp851
F10000
aa(lp852
F10000
aa(lp853
F10000
aa(lp854
F10000
aa(lp855
F10000
aa(lp856
F10000
aa(lp857
F10000
aa(lp858
F10000
aa(lp859
F10000
aa(lp860
F10000
aa(lp861
F10000
aa(lp862
F10000
aa(lp863
F10000
aa(lp864
F10000
aa(lp865
F10000
aa(lp866
F10000
aa(lp867
F10000
aa(lp868
F10000
aa(lp869
F10000
aa(lp870
F10000
aa(lp871
F10000
aa(lp872
F1364.5039999999999
aa(lp873
F503.25999999999999
aa(lp874
F10000
aa(lp875
F10000
aa(lp876
F10000
aa(lp877
F10000
aa(lp878
F10000
aa(lp879
F10000
aa(lp880
F10000
aa(lp881
F10000
aa(lp882
F3698.8620000000001
aa(lp883
F10000
aa(lp884
F1083.9580000000001
aa(lp885
F4340.2600000000002
aa(lp886
F10000
aa(lp887
F10000
aa(lp888
F10000
aa(lp889
F10000
aa(lp890
F10000
aa(lp891
F10000
aa(lp892
F10000
aa(lp893
F10000
aa(lp894
F10000
aa(lp895
F10000
aa(lp896
F10000
aa(lp897
F10000
aa(lp898
F10000
aa(lp899
F1453.9970000000001
aF1500.0119999999999
aa(lp900
F10000
aa(lp901
F10000
aa(lp902
F10000
aa(lp903
F10000
aa(lp904
F10000
aa(lp905
F312.88400000000001
aF315.65199999999999
aF334.87900000000002
aF487.31200000000001
aF796.53800000000001
aF804.53800000000001
aF813.55799999999999
aF818.55999999999995
aa(lp906
F10000
aa(lp907
F4424.576
aF4651.7979999999998
aF4654.7920000000004
aa(lp908
F10000
aa(lp909
F10000
aa(lp910
F10000
aa(lp911
F10000
aa(lp912
F2086.8539999999998
aF2486.8760000000002
aa(lp913
F10000
aa(lp914
F932.60699999999997
aF957.66600000000005
aF4068.8359999999998
aa(lp915
F10000
aa(lp916
F1987.0060000000001
aF3065.8939999999998
aF4268.317
aa(lp917
F1231.386
aF3690.9720000000002
aa(lp918
F1235.546
aF3265.2930000000001
aa(lp919
F1987.0519999999999
aF4305.424
aa(lp920
F4872.1620000000003
aa(lp921
F2865.0900000000001
aa(lp922
F1442.192
aF1484.6949999999999
aF2363.1930000000002
aF5005.0649999999996
aa(lp923
F10000
aa(lp924
F10000
aa(lp925
F4344.7349999999997
aF4723.7709999999997
aa(lp926
F1033.559
aa(lp927
F10000
aa(lp928
F2011.9860000000001
aa(lp929
F648.548
aF2513.268
aF3190.538
aF3491.3310000000001
aF4365.2430000000004
aF4657.433
aF4668.2479999999996
aF5047.7269999999999
aa(lp930
F10000
aa(lp931
F505.83100000000002
aF1992.6099999999999
aa(lp932
F858.798
aF1285.127
aF3365.7779999999998
aF3441.8969999999999
aF3667.2829999999999
aF3842.9630000000002
aF5247.2209999999995
aa(lp933
F10000
aa(lp934
F10000
aa(lp935
F10000
aa(lp936
F10000
aa(lp937
F10000
aa(lp938
F10000
aa(lp939
F10000
aa(lp940
F1622.576
aa(lp941
F10000
aa(lp942
F10000
aa(lp943
F10000
aa(lp944
F10000
aa(lp945
F10000
aa(lp946
F10000
aa(lp947
F10000
aa(lp948
F10000
aa(lp949
F10000
aa(lp950
F10000
aa(lp951
F10000
aa(lp952
F10000
aa(lp953
F10000
aa(lp954
F1801.038
aa(lp955
F10000
aa(lp956
F10000
aa(lp957
F10000
aa(lp958
F10000
aa(lp959
F3405.1709999999998
aa(lp960
F10000
aa(lp961
F10000
aa(lp962
F788.75999999999999
aa(lp963
F10000
aa(lp964
F10000
aa(lp965
F10000
aa(lp966
F10000
aa(lp967
F10000
aa(lp968
F10000
aa(lp969
F10000
aaa(lp970
(lp971
F10000
aa(lp972
F10000
aa(lp973
F10000
aa(lp974
F10000
aa(lp975
F10000
aa(lp976
F10000
aa(lp977
F2747.261
aa(lp978
F10000
aa(lp979
F10000
aa(lp980
F10000
aa(lp981
F10000
aa(lp982
F10000
aa(lp983
F5192.451
aa(lp984
F10000
aa(lp985
F10000
aa(lp986
F2196.029
aa(lp987
F10000
aa(lp988
F10000
aa(lp989
F10000
aa(lp990
F10000
aa(lp991
F10000
aa(lp992
F10000
aa(lp993
F10000
aa(lp994
F1864.502
aa(lp995
F10000
aa(lp996
F10000
aa(lp997
F10000
aa(lp998
F10000
aa(lp999
F10000
aa(lp1000
F10000
aa(lp1001
F10000
aa(lp1002
F10000
aa(lp1003
F10000
aa(lp1004
F10000
aa(lp1005
F10000
aa(lp1006
F10000
aa(lp1007
F10000
aa(lp1008
F10000
aa(lp1009
F10000
aa(lp1010
F10000
aa(lp1011
F10000
aa(lp1012
F2286.491
aa(lp1013
F10000
aa(lp1014
F2131.4540000000002
aa(lp1015
F10000
aa(lp1016
F10000
aa(lp1017
F10000
aa(lp1018
F10000
aa(lp1019
F10000
aa(lp1020
F10000
aa(lp1021
F10000
aa(lp1022
F989.15800000000002
aa(lp1023
F10000
aa(lp1024
F4624.8509999999997
aa(lp1025
F10000
aa(lp1026
F3090.9850000000001
aF3931.741
aF4081.567
aa(lp1027
F10000
aa(lp1028
F10000
aa(lp1029
F10000
aa(lp1030
F10000
aa(lp1031
F10000
aa(lp1032
F10000
aa(lp1033
F10000
aa(lp1034
F10000
aa(lp1035
F708.49099999999999
aF2293.4899999999998
aF2423.598
aF3116.0909999999999
aF3885.1979999999999
aF4209.8459999999995
aF4219.6419999999998
aF4318.9070000000002
aa(lp1036
F1509.432
aF3140.5770000000002
aF3566.7640000000001
aa(lp1037
F4521.8100000000004
aa(lp1038
F1482.3869999999999
aa(lp1039
F1141.1289999999999
aF1182.5260000000001
aF1251.8230000000001
aF1429.886
aF3039.509
aF3437.567
aF4343.5420000000004
aF4419.692
aa(lp1040
F1334.1279999999999
aF4435.5150000000003
aa(lp1041
F3967.1410000000001
aa(lp1042
F230.78800000000001
aF3415.4119999999998
aF3868.4639999999999
aa(lp1043
F10000
aa(lp1044
F582.63999999999999
aF3742.1579999999999
aF3791.1880000000001
aF4444.7200000000003
aa(lp1045
F4042.3539999999998
aa(lp1046
F10000
aa(lp1047
F230.946
aF3716.6709999999998
aa(lp1048
F551.89999999999998
aF2437.3820000000001
aF4570.1009999999997
aa(lp1049
F1261.077
aF1960.9690000000001
aF2186.748
aa(lp1050
F3290.6619999999998
aa(lp1051
F10000
aa(lp1052
F1638.933
aF3164.5329999999999
aa(lp1053
F2646.761
aa(lp1054
F10000
aa(lp1055
F10000
aa(lp1056
F10000
aa(lp1057
F10000
aa(lp1058
F2094.0790000000002
aF2513.3249999999998
aa(lp1059
F10000
aa(lp1060
F10000
aa(lp1061
F1537.8979999999999
aa(lp1062
F10000
aa(lp1063
F10000
aa(lp1064
F10000
aa(lp1065
F10000
aa(lp1066
F10000
aa(lp1067
F10000
aa(lp1068
F10000
aa(lp1069
F10000
aa(lp1070
F10000
aa(lp1071
F10000
aa(lp1072
F10000
aa(lp1073
F10000
aa(lp1074
F10000
aa(lp1075
F10000
aa(lp1076
F10000
aa(lp1077
F10000
aa(lp1078
F10000
aa(lp1079
F10000
aa(lp1080
F10000
aa(lp1081
F10000
aa(lp1082
F10000
aa(lp1083
F10000
aa(lp1084
F10000
aa(lp1085
F1778.8530000000001
aa(lp1086
F10000
aa(lp1087
F10000
aa(lp1088
F10000
aa(lp1089
F2052.0390000000002
aa(lp1090
F10000
aaa(lp1091
(lp1092
F621.94299999999998
aa(lp1093
F10000
aa(lp1094
F3408.4760000000001
aa(lp1095
F1355.069
aa(lp1096
F713.00300000000004
aa(lp1097
F10000
aa(lp1098
F10000
aa(lp1099
F10000
aa(lp1100
F10000
aa(lp1101
F10000
aa(lp1102
F10000
aa(lp1103
F10000
aa(lp1104
F10000
aa(lp1105
F10000
aa(lp1106
F10000
aa(lp1107
F10000
aa(lp1108
F10000
aa(lp1109
F10000
aa(lp1110
F10000
aa(lp1111
F10000
aa(lp1112
F10000
aa(lp1113
F10000
aa(lp1114
F10000
aa(lp1115
F5001.9769999999999
aa(lp1116
F10000
aa(lp1117
F10000
aa(lp1118
F10000
aa(lp1119
F10000
aa(lp1120
F10000
aa(lp1121
F10000
aa(lp1122
F10000
aa(lp1123
F10000
aa(lp1124
F10000
aa(lp1125
F10000
aa(lp1126
F10000
aa(lp1127
F3979.5160000000001
aa(lp1128
F10000
aa(lp1129
F10000
aa(lp1130
F4529.9629999999997
aa(lp1131
F2155.6060000000002
aa(lp1132
F10000
aa(lp1133
F10000
aa(lp1134
F10000
aa(lp1135
F10000
aa(lp1136
F10000
aa(lp1137
F10000
aa(lp1138
F10000
aa(lp1139
F10000
aa(lp1140
F10000
aa(lp1141
F10000
aa(lp1142
F10000
aa(lp1143
F10000
aa(lp1144
F10000
aa(lp1145
F465.428
aa(lp1146
F10000
aa(lp1147
F10000
aa(lp1148
F10000
aa(lp1149
F10000
aa(lp1150
F10000
aa(lp1151
F10000
aa(lp1152
F10000
aa(lp1153
F10000
aa(lp1154
F10000
aa(lp1155
F10000
aa(lp1156
F10000
aa(lp1157
F10000
aa(lp1158
F1407.923
aF2663.5279999999998
aF2915.4650000000001
aa(lp1159
F10000
aa(lp1160
F2722.3380000000002
aF4198.7330000000002
aF4244.2340000000004
aa(lp1161
F3416.018
aF4117.6899999999996
aa(lp1162
F10000
aa(lp1163
F10000
aa(lp1164
F10000
aa(lp1165
F3942.8780000000002
aa(lp1166
F2564.6410000000001
aF3892.8890000000001
aF5018.2049999999999
aa(lp1167
F3593.3009999999999
aF3715.6790000000001
aF4017.8270000000002
aF4871.5940000000001
aa(lp1168
F733.10199999999998
aF1535.4839999999999
aF4861.1490000000003
aa(lp1169
F4770.5839999999998
aa(lp1170
F456.71800000000002
aF531.73000000000002
aF958.25800000000004
aF1108.8910000000001
aF2137.364
aF2288.1930000000002
aF2362.8470000000002
aF2889.9499999999998
aF3416.1970000000001
aF3567.0309999999999
aF3869.0030000000002
aF4646.527
aF4722.1419999999998
aF5046.817
aF5123.0039999999999
aa(lp1171
F707.82899999999995
aF1081.848
aF2298.3910000000001
aF3115.4769999999999
aa(lp1172
F2186.8620000000001
aa(lp1173
F758.57299999999998
aF1133.367
aF2161.9690000000001
aF3691.3850000000002
aF5147.817
aa(lp1174
F10000
aa(lp1175
F10000
aa(lp1176
F10000
aa(lp1177
F10000
aa(lp1178
F10000
aa(lp1179
F10000
aa(lp1180
F10000
aa(lp1181
F10000
aa(lp1182
F911.67999999999995
aa(lp1183
F10000
aa(lp1184
F10000
aa(lp1185
F3695.2710000000002
aa(lp1186
F10000
aa(lp1187
F10000
aa(lp1188
F10000
aa(lp1189
F10000
aa(lp1190
F10000
aa(lp1191
F10000
aa(lp1192
F10000
aa(lp1193
F10000
aa(lp1194
F10000
aa(lp1195
F10000
aa(lp1196
F2549.4360000000001
aa(lp1197
F10000
aa(lp1198
F10000
aa(lp1199
F10000
aa(lp1200
F10000
aa(lp1201
F10000
aa(lp1202
F10000
aa(lp1203
F4806.6970000000001
aa(lp1204
F10000
aa(lp1205
F4667.3270000000002
aa(lp1206
F10000
aa(lp1207
F10000
aa(lp1208
F10000
aa(lp1209
F10000
aa(lp1210
F10000
aa(lp1211
F10000
aaa(lp1212
(lp1213
F351.88400000000001
aa(lp1214
F10000
aa(lp1215
F10000
aa(lp1216
F3267.4400000000001
aa(lp1217
F2476.154
aa(lp1218
F10000
aa(lp1219
F10000
aa(lp1220
F10000
aa(lp1221
F10000
aa(lp1222
F10000
aa(lp1223
F10000
aa(lp1224
F10000
aa(lp1225
F10000
aa(lp1226
F5191.5839999999998
aa(lp1227
F352.202
aa(lp1228
F10000
aa(lp1229
F10000
aa(lp1230
F10000
aa(lp1231
F10000
aa(lp1232
F10000
aa(lp1233
F10000
aa(lp1234
F10000
aa(lp1235
F10000
aa(lp1236
F10000
aa(lp1237
F10000
aa(lp1238
F10000
aa(lp1239
F10000
aa(lp1240
F10000
aa(lp1241
F10000
aa(lp1242
F10000
aa(lp1243
F1163.1800000000001
aa(lp1244
F10000
aa(lp1245
F10000
aa(lp1246
F10000
aa(lp1247
F10000
aa(lp1248
F10000
aa(lp1249
F10000
aa(lp1250
F2887.0390000000002
aa(lp1251
F10000
aa(lp1252
F10000
aa(lp1253
F10000
aa(lp1254
F10000
aa(lp1255
F10000
aa(lp1256
F10000
aa(lp1257
F10000
aa(lp1258
F10000
aa(lp1259
F10000
aa(lp1260
F10000
aa(lp1261
F10000
aa(lp1262
F10000
aa(lp1263
F10000
aa(lp1264
F10000
aa(lp1265
F10000
aa(lp1266
F10000
aa(lp1267
F10000
aa(lp1268
F10000
aa(lp1269
F10000
aa(lp1270
F10000
aa(lp1271
F10000
aa(lp1272
F10000
aa(lp1273
F10000
aa(lp1274
F10000
aa(lp1275
F10000
aa(lp1276
F10000
aa(lp1277
F495.48200000000003
aF3066.248
aF4372.1890000000003
aa(lp1278
F2061.5369999999998
aF3290.9259999999999
aF3592.6640000000002
aa(lp1279
F10000
aa(lp1280
F611.27099999999996
aF857.22500000000002
aF1777.4179999999999
aF3281.393
aF3302.3000000000002
aF3389.2379999999998
aF4118.0299999999997
aF4381.3149999999996
aF4532.2749999999996
aF4857.2399999999998
aF4878.2280000000001
aa(lp1281
F408.29399999999998
aF525.78899999999999
aF728.89700000000005
aF783.16099999999994
aF900.04700000000003
aF2239.337
aF2529.1559999999999
aF2604.3780000000002
aF2615.2959999999998
aF3152.3629999999998
aF3949.9720000000002
aF4543.826
aF4835.8500000000004
aF4998.0870000000004
aF5257.9799999999996
aa(lp1282
F281.72199999999998
aF1671.575
aF2486.5509999999999
aa(lp1283
F10000
aa(lp1284
F808.09900000000005
aa(lp1285
F10000
aa(lp1286
F2914.6460000000002
aa(lp1287
F3942.598
aF4319.8180000000002
aa(lp1288
F230.43000000000001
aF2312.7919999999999
aF2940.4929999999999
aF2989.9340000000002
aa(lp1289
F957.79700000000003
aF2211.6909999999998
aF3868.2649999999999
aF4170.1589999999997
aa(lp1290
F381.19999999999999
aa(lp1291
F1911.8499999999999
aF2539.5659999999998
aF2915.8409999999999
aa(lp1292
F4295.1180000000004
aa(lp1293
F1261.5609999999999
aa(lp1294
F10000
aa(lp1295
F10000
aa(lp1296
F10000
aa(lp1297
F10000
aa(lp1298
F10000
aa(lp1299
F4000.7359999999999
aa(lp1300
F2439.2710000000002
aa(lp1301
F10000
aa(lp1302
F4677.5230000000001
aa(lp1303
F10000
aa(lp1304
F10000
aa(lp1305
F10000
aa(lp1306
F10000
aa(lp1307
F10000
aa(lp1308
F10000
aa(lp1309
F10000
aa(lp1310
F10000
aa(lp1311
F10000
aa(lp1312
F10000
aa(lp1313
F10000
aa(lp1314
F10000
aa(lp1315
F10000
aa(lp1316
F10000
aa(lp1317
F10000
aa(lp1318
F10000
aa(lp1319
F10000
aa(lp1320
F10000
aa(lp1321
F10000
aa(lp1322
F10000
aa(lp1323
F10000
aa(lp1324
F10000
aa(lp1325
F10000
aa(lp1326
F10000
aa(lp1327
F1430.77
aa(lp1328
F10000
aa(lp1329
F10000
aa(lp1330
F10000
aa(lp1331
F10000
aa(lp1332
F3674.3130000000001
aaa(lp1333
(lp1334
F10000
aa(lp1335
F10000
aa(lp1336
F10000
aa(lp1337
F10000
aa(lp1338
F3608.7979999999998
aa(lp1339
F10000
aa(lp1340
F10000
aa(lp1341
F10000
aa(lp1342
F3689.5520000000001
aa(lp1343
F1003.2670000000001
aa(lp1344
F10000
aa(lp1345
F10000
aa(lp1346
F10000
aa(lp1347
F4209.3879999999999
aa(lp1348
F10000
aa(lp1349
F10000
aa(lp1350
F10000
aa(lp1351
F10000
aa(lp1352
F10000
aa(lp1353
F10000
aa(lp1354
F10000
aa(lp1355
F10000
aa(lp1356
F10000
aa(lp1357
F10000
aa(lp1358
F10000
aa(lp1359
F10000
aa(lp1360
F10000
aa(lp1361
F10000
aa(lp1362
F10000
aa(lp1363
F10000
aa(lp1364
F10000
aa(lp1365
F10000
aa(lp1366
F10000
aa(lp1367
F10000
aa(lp1368
F10000
aa(lp1369
F10000
aa(lp1370
F10000
aa(lp1371
F793.96000000000004
aa(lp1372
F10000
aa(lp1373
F1804.1320000000001
aa(lp1374
F1798.0309999999999
aa(lp1375
F10000
aa(lp1376
F10000
aa(lp1377
F10000
aa(lp1378
F10000
aa(lp1379
F1669.79
aF2211.576
aF2903.0459999999998
aa(lp1380
F10000
aa(lp1381
F10000
aa(lp1382
F10000
aa(lp1383
F10000
aa(lp1384
F10000
aa(lp1385
F10000
aa(lp1386
F10000
aa(lp1387
F3914.1300000000001
aa(lp1388
F10000
aa(lp1389
F10000
aa(lp1390
F10000
aa(lp1391
F10000
aa(lp1392
F10000
aa(lp1393
F10000
aa(lp1394
F10000
aa(lp1395
F10000
aa(lp1396
F10000
aa(lp1397
F10000
aa(lp1398
F4631.1840000000002
aa(lp1399
F1761.251
aa(lp1400
F2011.4380000000001
aF3992.5599999999999
aa(lp1401
F386.54899999999998
aF867.66600000000005
aF1317.145
aF1712.924
aF2792.462
aF2964.835
aF3066.1509999999998
aF3669.0749999999998
aF4078.962
aF4770.683
aF5171.0529999999999
aF5214.0540000000001
aF5268.3969999999999
aa(lp1402
F4944.3440000000001
aa(lp1403
F259.19499999999999
aF494.14299999999997
aF601.18200000000002
aF761.92600000000004
aF932.78099999999995
aF985.95799999999997
aF1018.223
aF1050.3699999999999
aF1339.191
aF1349.7329999999999
aF1403.806
aF1521.433
aF1820.954
aF1896.5170000000001
aF2100.1770000000001
aF2185.8539999999998
aF2443.6379999999999
aF2454.5790000000002
aF2550.7719999999999
aF2604.7869999999998
aF2755.0430000000001
aF2786.9029999999998
aF3024.0569999999998
aF3034.6930000000002
aF3163.5349999999999
aF3184.8960000000002
aF3314.2159999999999
aF3616.1500000000001
aF3745.337
aF3831.3040000000001
aF3885.703
aF3982.1350000000002
aF3992.9940000000001
aF4058.2060000000001
aF4068.8389999999999
aF4133.2460000000001
aF4317.152
aF4327.6220000000003
aF4457.8000000000002
aF4478.9200000000001
aF4489.9700000000003
aF4522.1120000000001
aF4576.1270000000004
aF4598.2719999999999
aF4803.6210000000001
aF4857.2700000000004
aF4998.2939999999999
aF5031.0140000000001
aF5139.2879999999996
aa(lp1404
F10000
aa(lp1405
F356.541
aF2112.8629999999998
aF2483.0709999999999
aF2912.4380000000001
aF3014.5419999999999
aF4497.0969999999998
aF5097.2700000000004
aa(lp1406
F1737.2280000000001
aF1886.9690000000001
aF3014.654
aF3090.7649999999999
aF3667.0309999999999
aF3843.0390000000002
aF4946.3159999999998
aa(lp1407
F229.95500000000001
aF481.81400000000002
aF1694.796
aF1834.319
aF1887.2059999999999
aF1909.6010000000001
aF2005.7909999999999
aF2187.902
aF2273.8809999999999
aF2488.348
aF2714.4360000000001
aF2939.9290000000001
aF3563.9699999999998
aF3715.2649999999999
aF3919.924
aF4092.7959999999998
aF4244.0079999999998
aF4319.4350000000004
aF4480.9970000000003
aF4871.018
aF4921.1120000000001
aF5044.1710000000003
aF5076.5020000000004
aF5227.8789999999999
aa(lp1408
F2714.5790000000002
aF3592.1709999999998
aa(lp1409
F1761.2909999999999
aa(lp1410
F10000
aa(lp1411
F1935.655
aF2312.6869999999999
aa(lp1412
F279.99200000000002
aF3916.8539999999998
aF4445.0519999999997
aF4770.7929999999997
aa(lp1413
F280.226
aF1403.364
aF3141.567
aF3441.9949999999999
aF4165.3299999999999
aF4846.29
aa(lp1414
F10000
aa(lp1415
F10000
aa(lp1416
F10000
aa(lp1417
F10000
aa(lp1418
F10000
aa(lp1419
F10000
aa(lp1420
F10000
aa(lp1421
F10000
aa(lp1422
F10000
aa(lp1423
F5094.0709999999999
aa(lp1424
F10000
aa(lp1425
F10000
aa(lp1426
F10000
aa(lp1427
F10000
aa(lp1428
F10000
aa(lp1429
F10000
aa(lp1430
F10000
aa(lp1431
F10000
aa(lp1432
F10000
aa(lp1433
F486.17500000000001
aa(lp1434
F10000
aa(lp1435
F10000
aa(lp1436
F10000
aa(lp1437
F10000
aa(lp1438
F1689.4169999999999
aa(lp1439
F10000
aa(lp1440
F3953.9549999999999
aa(lp1441
F10000
aa(lp1442
F10000
aa(lp1443
F10000
aa(lp1444
F10000
aa(lp1445
F4636.5119999999997
aa(lp1446
F10000
aa(lp1447
F10000
aa(lp1448
F10000
aa(lp1449
F10000
aa(lp1450
F10000
aa(lp1451
F10000
aa(lp1452
F10000
aa(lp1453
F10000
aaa(lp1454
(lp1455
F10000
aa(lp1456
F10000
aa(lp1457
F10000
aa(lp1458
F10000
aa(lp1459
F10000
aa(lp1460
F10000
aa(lp1461
F10000
aa(lp1462
F10000
aa(lp1463
F10000
aa(lp1464
F3808.9099999999999
aa(lp1465
F2265.346
aa(lp1466
F10000
aa(lp1467
F10000
aa(lp1468
F1003.617
aa(lp1469
F10000
aa(lp1470
F10000
aa(lp1471
F10000
aa(lp1472
F10000
aa(lp1473
F10000
aa(lp1474
F10000
aa(lp1475
F10000
aa(lp1476
F10000
aa(lp1477
F5111.5810000000001
aa(lp1478
F10000
aa(lp1479
F10000
aa(lp1480
F2786.8809999999999
aa(lp1481
F10000
aa(lp1482
F422.54599999999999
aa(lp1483
F10000
aa(lp1484
F10000
aa(lp1485
F10000
aa(lp1486
F10000
aa(lp1487
F10000
aa(lp1488
F10000
aa(lp1489
F10000
aa(lp1490
F10000
aa(lp1491
F10000
aa(lp1492
F10000
aa(lp1493
F10000
aa(lp1494
F10000
aa(lp1495
F4923.3429999999998
aa(lp1496
F10000
aa(lp1497
F10000
aa(lp1498
F10000
aa(lp1499
F10000
aa(lp1500
F10000
aa(lp1501
F10000
aa(lp1502
F10000
aa(lp1503
F10000
aa(lp1504
F10000
aa(lp1505
F10000
aa(lp1506
F10000
aa(lp1507
F10000
aa(lp1508
F4464.9650000000001
aa(lp1509
F1860.0650000000001
aF2106.1869999999999
aF3999.5309999999999
aF4024.9229999999998
aa(lp1510
F10000
aa(lp1511
F1104.1980000000001
aa(lp1512
F5186.4049999999997
aa(lp1513
F10000
aa(lp1514
F10000
aa(lp1515
F10000
aa(lp1516
F10000
aa(lp1517
F10000
aa(lp1518
F10000
aa(lp1519
F10000
aa(lp1520
F10000
aa(lp1521
F3817.373
aF4921.5900000000001
aa(lp1522
F3733.7600000000002
aF3766.3049999999998
aF4186.8239999999996
aF4219.3689999999997
aF5235.9089999999997
aa(lp1523
F280.565
aF397.90499999999997
aF430.22800000000001
aF472.66899999999998
aF505.00400000000002
aF558.33799999999997
aF686.23299999999995
aF750.89599999999996
aF1007.547
aF1028.4760000000001
aF1038.684
aF1189.0940000000001
aF1585.671
aF1713.952
aF1939.434
aF1971.1600000000001
aF2035.2080000000001
aF2057.018
aF2186.1460000000002
aF2948.2469999999998
aF3023.8719999999998
aF3303.268
aF3357.1689999999999
aF3626.5419999999999
aF3648.0920000000001
aF3691.0549999999998
aF3734.1750000000002
aF3767.1120000000001
aF3777.096
aF3798.9299999999998
aF3842.0610000000001
aF3971.7020000000002
aF3982.3589999999999
aF3992.8620000000001
aF4193.2120000000004
aF4327.7839999999997
aF4435.6800000000003
aF4565.0360000000001
aF4749.6279999999997
aF4770.7709999999997
aF4868.5209999999997
aa(lp1524
F10000
aa(lp1525
F10000
aa(lp1526
F833.25400000000002
aF1811.8019999999999
aF3164.7849999999999
aa(lp1527
F481.34100000000001
aF907.66600000000005
aF918.95699999999999
aF1308.605
aF1384.3579999999999
aF2182.9029999999998
aF2215.4760000000001
aF3316.1060000000002
aF3516.2469999999998
aF4469.8720000000003
aa(lp1528
F758.67600000000004
aF881.53300000000002
aF983.25599999999997
aF1041.3969999999999
aF1058.201
aF1674.1510000000001
aF2091.8359999999998
aF2161.5259999999998
aF2237.2469999999998
aF2634.3850000000002
aF3015.5680000000002
aF3090.614
aF3338.1779999999999
aF3930.922
aF4017.7260000000001
aF4200.7200000000003
aF4567.9279999999999
aF4697.3980000000001
aF5196.5200000000004
aa(lp1529
F230.57499999999999
aF2011.5989999999999
aF3015.152
aF4476.6999999999998
aF4871.3900000000003
aa(lp1530
F2387.6320000000001
aF2462.8820000000001
aa(lp1531
F10000
aa(lp1532
F2689.1469999999999
aF2990.1370000000002
aa(lp1533
F10000
aa(lp1534
F10000
aa(lp1535
F10000
aa(lp1536
F10000
aa(lp1537
F10000
aa(lp1538
F10000
aa(lp1539
F10000
aa(lp1540
F10000
aa(lp1541
F10000
aa(lp1542
F10000
aa(lp1543
F10000
aa(lp1544
F10000
aa(lp1545
F10000
aa(lp1546
F10000
aa(lp1547
F1670.125
aa(lp1548
F10000
aa(lp1549
F10000
aa(lp1550
F10000
aa(lp1551
F10000
aa(lp1552
F10000
aa(lp1553
F10000
aa(lp1554
F10000
aa(lp1555
F10000
aa(lp1556
F10000
aa(lp1557
F10000
aa(lp1558
F10000
aa(lp1559
F477.03100000000001
aa(lp1560
F10000
aa(lp1561
F5036.2820000000002
aa(lp1562
F10000
aa(lp1563
F2672.114
aa(lp1564
F10000
aa(lp1565
F10000
aa(lp1566
F10000
aa(lp1567
F10000
aa(lp1568
F4637.2879999999996
aa(lp1569
F809.02499999999998
aa(lp1570
F10000
aa(lp1571
F10000
aa(lp1572
F10000
aa(lp1573
F10000
aa(lp1574
F1359.8969999999999
aaa(lp1575
(lp1576
F10000
aa(lp1577
F10000
aa(lp1578
F10000
aa(lp1579
F10000
aa(lp1580
F10000
aa(lp1581
F10000
aa(lp1582
F10000
aa(lp1583
F10000
aa(lp1584
F5202.4129999999996
aa(lp1585
F10000
aa(lp1586
F10000
aa(lp1587
F10000
aa(lp1588
F3368.395
aa(lp1589
F10000
aa(lp1590
F10000
aa(lp1591
F1643.5229999999999
aa(lp1592
F10000
aa(lp1593
F10000
aa(lp1594
F10000
aa(lp1595
F10000
aa(lp1596
F10000
aa(lp1597
F10000
aa(lp1598
F541.02599999999995
aa(lp1599
F10000
aa(lp1600
F10000
aa(lp1601
F10000
aa(lp1602
F10000
aa(lp1603
F10000
aa(lp1604
F10000
aa(lp1605
F10000
aa(lp1606
F2697.0810000000001
aa(lp1607
F10000
aa(lp1608
F10000
aa(lp1609
F10000
aa(lp1610
F10000
aa(lp1611
F10000
aa(lp1612
F10000
aa(lp1613
F2717.9209999999998
aa(lp1614
F10000
aa(lp1615
F10000
aa(lp1616
F10000
aa(lp1617
F1460.124
aa(lp1618
F3604.0859999999998
aF3630.2489999999998
aF4551.6459999999997
aa(lp1619
F10000
aa(lp1620
F10000
aa(lp1621
F10000
aa(lp1622
F10000
aa(lp1623
F10000
aa(lp1624
F10000
aa(lp1625
F10000
aa(lp1626
F10000
aa(lp1627
F10000
aa(lp1628
F10000
aa(lp1629
F10000
aa(lp1630
F10000
aa(lp1631
F1560.039
aa(lp1632
F10000
aa(lp1633
F10000
aa(lp1634
F10000
aa(lp1635
F10000
aa(lp1636
F10000
aa(lp1637
F10000
aa(lp1638
F10000
aa(lp1639
F10000
aa(lp1640
F1158.396
aF1811.085
aF3041.107
aF3865.924
aF3994.4720000000002
aF4570.8850000000002
aF4697.2820000000002
aa(lp1641
F10000
aa(lp1642
F531.26700000000005
aF3190.0619999999999
aa(lp1643
F280.06900000000002
aF3722.8960000000002
aa(lp1644
F521.05700000000002
aF606.55799999999999
aF1509.9559999999999
aF1928.403
aF1949.6110000000001
aF2942.8040000000001
aF3605.0100000000002
aF3723.1260000000002
aF4495.6710000000003
aa(lp1645
F1500.01
aF1617.8030000000001
aF2153.9110000000001
aF2207.518
aF2282.5120000000002
aF2421.9360000000001
aF3012.8539999999998
aF3486.6379999999999
aF3594.7069999999999
aF3691.4169999999999
aF4036.6689999999999
aF4360.6149999999998
aF4922.8900000000003
aF5128.7020000000002
aa(lp1646
F281.11599999999999
aF505.77600000000001
aF2262.1880000000001
aF2487.0129999999999
aa(lp1647
F501.80000000000001
aF725.51599999999996
aF2589.6550000000002
aF2764.6689999999999
aF3213.9229999999998
aF3240.7939999999999
aF3666.0540000000001
aF4864.5519999999997
aa(lp1648
F330.99000000000001
aF865.34799999999996
aF1260.817
aa(lp1649
F608.83900000000006
aF833.43700000000001
aF2687.5039999999999
aF3041.2840000000001
aF3947.1550000000002
aF4605.4189999999999
aF5157.6189999999997
aa(lp1650
F1613.674
aF1753.0530000000001
aF1977.8610000000001
aF3441.0770000000002
aa(lp1651
F555.79999999999995
aF3041.2420000000002
aa(lp1652
F406.40100000000001
aF2299.8850000000002
aF2463.087
aF3215.1289999999999
aF3742.7179999999998
aF4671.2749999999996
aa(lp1653
F10000
aa(lp1654
F10000
aa(lp1655
F10000
aa(lp1656
F10000
aa(lp1657
F10000
aa(lp1658
F10000
aa(lp1659
F10000
aa(lp1660
F10000
aa(lp1661
F10000
aa(lp1662
F10000
aa(lp1663
F10000
aa(lp1664
F4683.8040000000001
aa(lp1665
F10000
aa(lp1666
F10000
aa(lp1667
F10000
aa(lp1668
F10000
aa(lp1669
F10000
aa(lp1670
F10000
aa(lp1671
F10000
aa(lp1672
F10000
aa(lp1673
F10000
aa(lp1674
F10000
aa(lp1675
F10000
aa(lp1676
F10000
aa(lp1677
F10000
aa(lp1678
F10000
aa(lp1679
F10000
aa(lp1680
F10000
aa(lp1681
F10000
aa(lp1682
F10000
aa(lp1683
F2529.3989999999999
aa(lp1684
F718.47500000000002
aa(lp1685
F5118.6620000000003
aa(lp1686
F2832.1199999999999
aa(lp1687
F10000
aa(lp1688
F10000
aa(lp1689
F10000
aa(lp1690
F2953.1979999999999
aa(lp1691
F969.25599999999997
aa(lp1692
F10000
aa(lp1693
F10000
aa(lp1694
F2953.7539999999999
aa(lp1695
F10000
aaa(lp1696
(lp1697
F10000
aa(lp1698
F10000
aa(lp1699
F10000
aa(lp1700
F10000
aa(lp1701
F10000
aa(lp1702
F10000
aa(lp1703
F10000
aa(lp1704
F10000
aa(lp1705
F10000
aa(lp1706
F10000
aa(lp1707
F10000
aa(lp1708
F10000
aa(lp1709
F10000
aa(lp1710
F10000
aa(lp1711
F10000
aa(lp1712
F10000
aa(lp1713
F10000
aa(lp1714
F10000
aa(lp1715
F10000
aa(lp1716
F10000
aa(lp1717
F4930.5389999999998
aa(lp1718
F1755.068
aa(lp1719
F10000
aa(lp1720
F10000
aa(lp1721
F10000
aa(lp1722
F10000
aa(lp1723
F10000
aa(lp1724
F10000
aa(lp1725
F10000
aa(lp1726
F10000
aa(lp1727
F10000
aa(lp1728
F10000
aa(lp1729
F10000
aa(lp1730
F10000
aa(lp1731
F10000
aa(lp1732
F10000
aa(lp1733
F2196.1280000000002
aa(lp1734
F10000
aa(lp1735
F10000
aa(lp1736
F10000
aa(lp1737
F10000
aa(lp1738
F347.61500000000001
aa(lp1739
F10000
aa(lp1740
F10000
aa(lp1741
F659.97500000000002
aa(lp1742
F10000
aa(lp1743
F10000
aa(lp1744
F2743.3150000000001
aa(lp1745
F10000
aa(lp1746
F10000
aa(lp1747
F10000
aa(lp1748
F10000
aa(lp1749
F1049.973
aa(lp1750
F1109.904
aa(lp1751
F10000
aa(lp1752
F1988.0350000000001
aF2446.7539999999999
aF2585.2170000000001
aF3272.3119999999999
aa(lp1753
F2831.598
aa(lp1754
F10000
aa(lp1755
F10000
aa(lp1756
F10000
aa(lp1757
F10000
aa(lp1758
F10000
aa(lp1759
F10000
aa(lp1760
F10000
aa(lp1761
F381.69799999999998
aF1485.068
aF2111.5210000000002
aF2263.1819999999998
aF2413.0239999999999
aF3187.4380000000001
aF3541.913
aF4017.7979999999998
aa(lp1762
F3340.444
aa(lp1763
F1434.1969999999999
aa(lp1764
F531.75599999999997
aF553.01499999999999
aF1676.6210000000001
aF2083.8879999999999
aF2513.3400000000001
aF2824.8629999999998
aF2942.9650000000001
aF3115.3939999999998
aF3448.7359999999999
aF3534.9409999999998
aF3642.4140000000002
aF3793.1860000000001
aF4138.9620000000004
aF4419.9899999999998
aF5068.9799999999996
aa(lp1765
F1484.181
aF2513.348
aF2588.8020000000001
aa(lp1766
F10000
aa(lp1767
F3044.8470000000002
aF4245.308
aa(lp1768
F10000
aa(lp1769
F2740.404
aa(lp1770
F1153.7380000000001
aF1334.768
aF1560.4639999999999
aF4670.7020000000002
aa(lp1771
F585.71199999999999
aF928.59199999999998
aF4302.7969999999996
aa(lp1772
F10000
aa(lp1773
F10000
aa(lp1774
F10000
aa(lp1775
F10000
aa(lp1776
F10000
aa(lp1777
F10000
aa(lp1778
F10000
aa(lp1779
F10000
aa(lp1780
F10000
aa(lp1781
F10000
aa(lp1782
F10000
aa(lp1783
F10000
aa(lp1784
F10000
aa(lp1785
F10000
aa(lp1786
F1676.5419999999999
aa(lp1787
F10000
aa(lp1788
F10000
aa(lp1789
F10000
aa(lp1790
F10000
aa(lp1791
F10000
aa(lp1792
F10000
aa(lp1793
F10000
aa(lp1794
F10000
aa(lp1795
F3914.0210000000002
aa(lp1796
F10000
aa(lp1797
F10000
aa(lp1798
F10000
aa(lp1799
F10000
aa(lp1800
F10000
aa(lp1801
F1298.5650000000001
aa(lp1802
F10000
aa(lp1803
F10000
aa(lp1804
F10000
aa(lp1805
F446.77499999999998
aa(lp1806
F10000
aa(lp1807
F10000
aa(lp1808
F10000
aa(lp1809
F10000
aa(lp1810
F10000
aa(lp1811
F10000
aa(lp1812
F10000
aa(lp1813
F10000
aa(lp1814
F4416.2089999999998
aa(lp1815
F10000
aa(lp1816
F10000
aaa(lp1817
(lp1818
F10000
aa(lp1819
F3638.4459999999999
aa(lp1820
F10000
aa(lp1821
F10000
aa(lp1822
F10000
aa(lp1823
F10000
aa(lp1824
F10000
aa(lp1825
F10000
aa(lp1826
F10000
aa(lp1827
F10000
aa(lp1828
F10000
aa(lp1829
F10000
aa(lp1830
F10000
aa(lp1831
F10000
aa(lp1832
F10000
aa(lp1833
F10000
aa(lp1834
F10000
aa(lp1835
F10000
aa(lp1836
F10000
aa(lp1837
F10000
aa(lp1838
F10000
aa(lp1839
F2165.067
aa(lp1840
F10000
aa(lp1841
F10000
aa(lp1842
F10000
aa(lp1843
F2676.857
aa(lp1844
F10000
aa(lp1845
F10000
aa(lp1846
F10000
aa(lp1847
F10000
aa(lp1848
F10000
aa(lp1849
F10000
aa(lp1850
F10000
aa(lp1851
F10000
aa(lp1852
F10000
aa(lp1853
F10000
aa(lp1854
F10000
aa(lp1855
F10000
aa(lp1856
F10000
aa(lp1857
F10000
aa(lp1858
F10000
aa(lp1859
F10000
aa(lp1860
F10000
aa(lp1861
F10000
aa(lp1862
F4606.4589999999998
aa(lp1863
F10000
aa(lp1864
F10000
aa(lp1865
F10000
aa(lp1866
F10000
aa(lp1867
F10000
aa(lp1868
F2948.1979999999999
aF4145.4620000000004
aa(lp1869
F3614.386
aa(lp1870
F10000
aa(lp1871
F689.32899999999995
aa(lp1872
F2962.7579999999998
aF2968.2310000000002
aF3004.3180000000002
aa(lp1873
F4345.6629999999996
aa(lp1874
F10000
aa(lp1875
F10000
aa(lp1876
F10000
aa(lp1877
F10000
aa(lp1878
F10000
aa(lp1879
F10000
aa(lp1880
F10000
aa(lp1881
F10000
aa(lp1882
F10000
aa(lp1883
F3942.7550000000001
aF4570.5280000000002
aa(lp1884
F1535.3979999999999
aF4116.0969999999998
aa(lp1885
F1162.425
aF1461.7729999999999
aF2362.7730000000001
aF2846.134
aF3567.3809999999999
aF3992.1439999999998
aF4018.6959999999999
aF4375.7669999999998
aF4700.7650000000003
aF4722.3159999999998
aa(lp1886
F582.94200000000001
aF681.08299999999997
aF830.62900000000002
aF851.84900000000005
aF1032.1410000000001
aF1580.0909999999999
aF1642.271
aF2030.0139999999999
aF2062.174
aF2899.7049999999999
aF2963.6529999999998
aF3427.297
aF3814.8530000000001
aF3944.3299999999999
aF3976.4360000000001
aF4063.0770000000002
aF4224.6949999999997
aF5046.9930000000004
aF5068.4380000000001
aa(lp1887
F1184.4639999999999
aF2513.0079999999998
aF2814.0709999999999
aF2964.759
aF3492.1019999999999
aF4494.8549999999996
aF4677.4229999999998
aF4927.0169999999998
aF5046.8680000000004
aa(lp1888
F230.88
aF1484.665
aF4126.5370000000003
aF4972.8180000000002
aa(lp1889
F982.76700000000005
aF4421.509
aF4972.7430000000004
aa(lp1890
F10000
aa(lp1891
F10000
aa(lp1892
F10000
aa(lp1893
F10000
aa(lp1894
F10000
aa(lp1895
F10000
aa(lp1896
F10000
aa(lp1897
F10000
aa(lp1898
F10000
aa(lp1899
F10000
aa(lp1900
F10000
aa(lp1901
F10000
aa(lp1902
F3030.7759999999998
aa(lp1903
F10000
aa(lp1904
F10000
aa(lp1905
F5134.0079999999998
aa(lp1906
F10000
aa(lp1907
F2938.7869999999998
aa(lp1908
F10000
aa(lp1909
F10000
aa(lp1910
F10000
aa(lp1911
F10000
aa(lp1912
F989.58799999999997
aa(lp1913
F10000
aa(lp1914
F10000
aa(lp1915
F10000
aa(lp1916
F10000
aa(lp1917
F2066.6399999999999
aa(lp1918
F10000
aa(lp1919
F10000
aa(lp1920
F10000
aa(lp1921
F10000
aa(lp1922
F10000
aa(lp1923
F10000
aa(lp1924
F10000
aa(lp1925
F10000
aa(lp1926
F1430.576
aa(lp1927
F10000
aa(lp1928
F10000
aa(lp1929
F10000
aa(lp1930
F10000
aa(lp1931
F10000
aa(lp1932
F1049.6790000000001
aa(lp1933
F4906.0150000000003
aa(lp1934
F10000
aa(lp1935
F808.62800000000004
aa(lp1936
F10000
aa(lp1937
F10000
aaa(lp1938
(lp1939
F10000
aa(lp1940
F2886.5210000000002
aa(lp1941
F10000
aa(lp1942
F10000
aa(lp1943
F10000
aa(lp1944
F10000
aa(lp1945
F10000
aa(lp1946
F10000
aa(lp1947
F10000
aa(lp1948
F10000
aa(lp1949
F10000
aa(lp1950
F10000
aa(lp1951
F10000
aa(lp1952
F4340.2479999999996
aa(lp1953
F1193.115
aa(lp1954
F10000
aa(lp1955
F10000
aa(lp1956
F2095.076
aa(lp1957
F10000
aa(lp1958
F10000
aa(lp1959
F10000
aa(lp1960
F10000
aa(lp1961
F10000
aa(lp1962
F10000
aa(lp1963
F10000
aa(lp1964
F10000
aa(lp1965
F10000
aa(lp1966
F10000
aa(lp1967
F10000
aa(lp1968
F10000
aa(lp1969
F10000
aa(lp1970
F10000
aa(lp1971
F10000
aa(lp1972
F10000
aa(lp1973
F4971.1949999999997
aa(lp1974
F10000
aa(lp1975
F10000
aa(lp1976
F10000
aa(lp1977
F10000
aa(lp1978
F3679.201
aa(lp1979
F10000
aa(lp1980
F10000
aa(lp1981
F10000
aa(lp1982
F2941.5340000000001
aa(lp1983
F2838.527
aa(lp1984
F10000
aa(lp1985
F10000
aa(lp1986
F10000
aa(lp1987
F10000
aa(lp1988
F10000
aa(lp1989
F10000
aa(lp1990
F10000
aa(lp1991
F10000
aa(lp1992
F10000
aa(lp1993
F2413.3339999999998
aF2536.6120000000001
aa(lp1994
F10000
aa(lp1995
F10000
aa(lp1996
F10000
aa(lp1997
F2614.0729999999999
aa(lp1998
F10000
aa(lp1999
F10000
aa(lp2000
F10000
aa(lp2001
F10000
aa(lp2002
F10000
aa(lp2003
F10000
aa(lp2004
F10000
aa(lp2005
F10000
aa(lp2006
F10000
aa(lp2007
F10000
aa(lp2008
F10000
aa(lp2009
F10000
aa(lp2010
F10000
aa(lp2011
F10000
aa(lp2012
F10000
aa(lp2013
F10000
aa(lp2014
F10000
aa(lp2015
F10000
aa(lp2016
F10000
aa(lp2017
F10000
aa(lp2018
F10000
aa(lp2019
F10000
aa(lp2020
F10000
aa(lp2021
F10000
aa(lp2022
F10000
aa(lp2023
F10000
aa(lp2024
F4478.5889999999999
aa(lp2025
F10000
aa(lp2026
F10000
aa(lp2027
F10000
aa(lp2028
F10000
aa(lp2029
F10000
aa(lp2030
F248.876
aF761.976
aa(lp2031
F3323.71
aa(lp2032
F10000
aa(lp2033
F10000
aa(lp2034
F10000
aa(lp2035
F10000
aa(lp2036
F10000
aa(lp2037
F10000
aa(lp2038
F10000
aa(lp2039
F10000
aa(lp2040
F10000
aa(lp2041
F10000
aa(lp2042
F10000
aa(lp2043
F10000
aa(lp2044
F10000
aa(lp2045
F10000
aa(lp2046
F10000
aa(lp2047
F10000
aa(lp2048
F10000
aa(lp2049
F10000
aa(lp2050
F10000
aa(lp2051
F10000
aa(lp2052
F10000
aa(lp2053
F10000
aa(lp2054
F1569.9870000000001
aa(lp2055
F10000
aa(lp2056
F2772.223
aa(lp2057
F10000
aa(lp2058
F10000
aaa(lp2059
(lp2060
F10000
aa(lp2061
F10000
aa(lp2062
F2286.201
aa(lp2063
F10000
aa(lp2064
F2686.462
aa(lp2065
F10000
aa(lp2066
F10000
aa(lp2067
F1845.002
aa(lp2068
F10000
aa(lp2069
F2375.1529999999998
aa(lp2070
F3939.259
aa(lp2071
F10000
aa(lp2072
F10000
aa(lp2073
F2095.21
aa(lp2074
F10000
aa(lp2075
F10000
aa(lp2076
F10000
aa(lp2077
F10000
aa(lp2078
F10000
aa(lp2079
F10000
aa(lp2080
F10000
aa(lp2081
F10000
aa(lp2082
F10000
aa(lp2083
F10000
aa(lp2084
F10000
aa(lp2085
F10000
aa(lp2086
F10000
aa(lp2087
F10000
aa(lp2088
F10000
aa(lp2089
F10000
aa(lp2090
F10000
aa(lp2091
F10000
aa(lp2092
F10000
aa(lp2093
F10000
aa(lp2094
F10000
aa(lp2095
F10000
aa(lp2096
F10000
aa(lp2097
F10000
aa(lp2098
F10000
aa(lp2099
F10000
aa(lp2100
F1856.2270000000001
aa(lp2101
F10000
aa(lp2102
F10000
aa(lp2103
F10000
aa(lp2104
F5171.5069999999996
aa(lp2105
F10000
aa(lp2106
F10000
aa(lp2107
F10000
aa(lp2108
F10000
aa(lp2109
F1414.9280000000001
aa(lp2110
F10000
aa(lp2111
F742.34299999999996
aa(lp2112
F10000
aa(lp2113
F10000
aa(lp2114
F843.92700000000002
aa(lp2115
F3710.3780000000002
aa(lp2116
F10000
aa(lp2117
F10000
aa(lp2118
F10000
aa(lp2119
F10000
aa(lp2120
F10000
aa(lp2121
F10000
aa(lp2122
F10000
aa(lp2123
F10000
aa(lp2124
F10000
aa(lp2125
F10000
aa(lp2126
F10000
aa(lp2127
F10000
aa(lp2128
F10000
aa(lp2129
F10000
aa(lp2130
F10000
aa(lp2131
F10000
aa(lp2132
F10000
aa(lp2133
F10000
aa(lp2134
F10000
aa(lp2135
F10000
aa(lp2136
F10000
aa(lp2137
F10000
aa(lp2138
F10000
aa(lp2139
F10000
aa(lp2140
F10000
aa(lp2141
F10000
aa(lp2142
F10000
aa(lp2143
F10000
aa(lp2144
F10000
aa(lp2145
F10000
aa(lp2146
F10000
aa(lp2147
F10000
aa(lp2148
F10000
aa(lp2149
F1791.489
aa(lp2150
F10000
aa(lp2151
F10000
aa(lp2152
F10000
aa(lp2153
F10000
aa(lp2154
F10000
aa(lp2155
F10000
aa(lp2156
F10000
aa(lp2157
F10000
aa(lp2158
F10000
aa(lp2159
F10000
aa(lp2160
F1249.556
aa(lp2161
F347.23500000000001
aa(lp2162
F10000
aa(lp2163
F10000
aa(lp2164
F10000
aa(lp2165
F10000
aa(lp2166
F10000
aa(lp2167
F10000
aa(lp2168
F10000
aa(lp2169
F10000
aa(lp2170
F1260.1220000000001
aa(lp2171
F10000
aa(lp2172
F10000
aa(lp2173
F10000
aa(lp2174
F10000
aa(lp2175
F1380.365
aa(lp2176
F10000
aa(lp2177
F10000
aa(lp2178
F10000
aa(lp2179
F4565.1419999999998
aaa(lp2180
(lp2181
F10000
aa(lp2182
F10000
aa(lp2183
F10000
aa(lp2184
F10000
aa(lp2185
F10000
aa(lp2186
F10000
aa(lp2187
F10000
aa(lp2188
F10000
aa(lp2189
F10000
aa(lp2190
F10000
aa(lp2191
F1424.309
aa(lp2192
F1353.9860000000001
aa(lp2193
F10000
aa(lp2194
F10000
aa(lp2195
F10000
aa(lp2196
F10000
aa(lp2197
F10000
aa(lp2198
F10000
aa(lp2199
F10000
aa(lp2200
F10000
aa(lp2201
F10000
aa(lp2202
F10000
aa(lp2203
F10000
aa(lp2204
F10000
aa(lp2205
F10000
aa(lp2206
F10000
aa(lp2207
F10000
aa(lp2208
F10000
aa(lp2209
F10000
aa(lp2210
F10000
aa(lp2211
F10000
aa(lp2212
F10000
aa(lp2213
F1132.8620000000001
aa(lp2214
F10000
aa(lp2215
F10000
aa(lp2216
F10000
aa(lp2217
F10000
aa(lp2218
F10000
aa(lp2219
F2295.1669999999999
aa(lp2220
F10000
aa(lp2221
F10000
aa(lp2222
F4501.1779999999999
aa(lp2223
F10000
aa(lp2224
F10000
aa(lp2225
F10000
aa(lp2226
F10000
aa(lp2227
F10000
aa(lp2228
F10000
aa(lp2229
F10000
aa(lp2230
F10000
aa(lp2231
F10000
aa(lp2232
F10000
aa(lp2233
F10000
aa(lp2234
F1373.258
aa(lp2235
F10000
aa(lp2236
F10000
aa(lp2237
F10000
aa(lp2238
F10000
aa(lp2239
F10000
aa(lp2240
F10000
aa(lp2241
F10000
aa(lp2242
F10000
aa(lp2243
F10000
aa(lp2244
F10000
aa(lp2245
F10000
aa(lp2246
F10000
aa(lp2247
F10000
aa(lp2248
F10000
aa(lp2249
F10000
aa(lp2250
F10000
aa(lp2251
F10000
aa(lp2252
F10000
aa(lp2253
F10000
aa(lp2254
F10000
aa(lp2255
F10000
aa(lp2256
F10000
aa(lp2257
F10000
aa(lp2258
F10000
aa(lp2259
F10000
aa(lp2260
F10000
aa(lp2261
F10000
aa(lp2262
F10000
aa(lp2263
F10000
aa(lp2264
F10000
aa(lp2265
F10000
aa(lp2266
F10000
aa(lp2267
F10000
aa(lp2268
F1596.9010000000001
aF3109.5340000000001
aa(lp2269
F10000
aa(lp2270
F10000
aa(lp2271
F10000
aa(lp2272
F4949.8819999999996
aa(lp2273
F10000
aa(lp2274
F2031.143
aa(lp2275
F10000
aa(lp2276
F10000
aa(lp2277
F10000
aa(lp2278
F10000
aa(lp2279
F10000
aa(lp2280
F868.96699999999998
aa(lp2281
F10000
aa(lp2282
F10000
aa(lp2283
F10000
aa(lp2284
F10000
aa(lp2285
F4114.277
aa(lp2286
F10000
aa(lp2287
F10000
aa(lp2288
F10000
aa(lp2289
F10000
aa(lp2290
F10000
aa(lp2291
F10000
aa(lp2292
F2372.6379999999999
aa(lp2293
F10000
aa(lp2294
F10000
aa(lp2295
F10000
aa(lp2296
F10000
aa(lp2297
F10000
aa(lp2298
F4625.3620000000001
aa(lp2299
F10000
aa(lp2300
F10000
aaa(lp2301
(lp2302
F10000
aa(lp2303
F10000
aa(lp2304
F10000
aa(lp2305
F1925.665
aa(lp2306
F1423.7560000000001
aa(lp2307
F10000
aa(lp2308
F10000
aa(lp2309
F10000
aa(lp2310
F10000
aa(lp2311
F10000
aa(lp2312
F10000
aa(lp2313
F10000
aa(lp2314
F10000
aa(lp2315
F10000
aa(lp2316
F10000
aa(lp2317
F10000
aa(lp2318
F10000
aa(lp2319
F10000
aa(lp2320
F10000
aa(lp2321
F10000
aa(lp2322
F10000
aa(lp2323
F10000
aa(lp2324
F10000
aa(lp2325
F10000
aa(lp2326
F10000
aa(lp2327
F10000
aa(lp2328
F10000
aa(lp2329
F10000
aa(lp2330
F10000
aa(lp2331
F4729.8959999999997
aa(lp2332
F10000
aa(lp2333
F10000
aa(lp2334
F10000
aa(lp2335
F10000
aa(lp2336
F10000
aa(lp2337
F10000
aa(lp2338
F10000
aa(lp2339
F10000
aa(lp2340
F10000
aa(lp2341
F10000
aa(lp2342
F10000
aa(lp2343
F10000
aa(lp2344
F10000
aa(lp2345
F10000
aa(lp2346
F10000
aa(lp2347
F10000
aa(lp2348
F1134.479
aa(lp2349
F10000
aa(lp2350
F10000
aa(lp2351
F10000
aa(lp2352
F703.42399999999998
aa(lp2353
F10000
aa(lp2354
F623.13999999999999
aa(lp2355
F10000
aa(lp2356
F10000
aa(lp2357
F10000
aa(lp2358
F10000
aa(lp2359
F10000
aa(lp2360
F10000
aa(lp2361
F10000
aa(lp2362
F10000
aa(lp2363
F10000
aa(lp2364
F10000
aa(lp2365
F10000
aa(lp2366
F10000
aa(lp2367
F10000
aa(lp2368
F10000
aa(lp2369
F10000
aa(lp2370
F10000
aa(lp2371
F10000
aa(lp2372
F10000
aa(lp2373
F10000
aa(lp2374
F10000
aa(lp2375
F10000
aa(lp2376
F10000
aa(lp2377
F10000
aa(lp2378
F10000
aa(lp2379
F10000
aa(lp2380
F10000
aa(lp2381
F10000
aa(lp2382
F10000
aa(lp2383
F10000
aa(lp2384
F10000
aa(lp2385
F10000
aa(lp2386
F10000
aa(lp2387
F10000
aa(lp2388
F10000
aa(lp2389
F10000
aa(lp2390
F10000
aa(lp2391
F10000
aa(lp2392
F10000
aa(lp2393
F3553.8270000000002
aa(lp2394
F773.95799999999997
aa(lp2395
F10000
aa(lp2396
F10000
aa(lp2397
F10000
aa(lp2398
F10000
aa(lp2399
F10000
aa(lp2400
F10000
aa(lp2401
F10000
aa(lp2402
F10000
aa(lp2403
F10000
aa(lp2404
F10000
aa(lp2405
F10000
aa(lp2406
F10000
aa(lp2407
F10000
aa(lp2408
F10000
aa(lp2409
F417.197
aa(lp2410
F2953.4119999999998
aa(lp2411
F10000
aa(lp2412
F2412.4090000000001
aa(lp2413
F10000
aa(lp2414
F10000
aa(lp2415
F10000
aa(lp2416
F10000
aa(lp2417
F10000
aa(lp2418
F10000
aa(lp2419
F10000
aa(lp2420
F10000
aa(lp2421
F2377.2330000000002
aaa(lp2422
(lp2423
F10000
aa(lp2424
F10000
aa(lp2425
F10000
aa(lp2426
F10000
aa(lp2427
F10000
aa(lp2428
F10000
aa(lp2429
F10000
aa(lp2430
F10000
aa(lp2431
F10000
aa(lp2432
F3898.6999999999998
aa(lp2433
F10000
aa(lp2434
F10000
aa(lp2435
F10000
aa(lp2436
F4389.5420000000004
aa(lp2437
F10000
aa(lp2438
F1834.307
aa(lp2439
F10000
aa(lp2440
F10000
aa(lp2441
F10000
aa(lp2442
F10000
aa(lp2443
F10000
aa(lp2444
F10000
aa(lp2445
F10000
aa(lp2446
F10000
aa(lp2447
F10000
aa(lp2448
F10000
aa(lp2449
F10000
aa(lp2450
F10000
aa(lp2451
F10000
aa(lp2452
F2286.5439999999999
aa(lp2453
F10000
aa(lp2454
F10000
aa(lp2455
F10000
aa(lp2456
F10000
aa(lp2457
F10000
aa(lp2458
F10000
aa(lp2459
F1512.837
aa(lp2460
F10000
aa(lp2461
F10000
aa(lp2462
F10000
aa(lp2463
F10000
aa(lp2464
F10000
aa(lp2465
F10000
aa(lp2466
F10000
aa(lp2467
F10000
aa(lp2468
F10000
aa(lp2469
F4660.326
aa(lp2470
F10000
aa(lp2471
F10000
aa(lp2472
F10000
aa(lp2473
F3066.027
aa(lp2474
F10000
aa(lp2475
F10000
aa(lp2476
F1683.9690000000001
aa(lp2477
F10000
aa(lp2478
F10000
aa(lp2479
F10000
aa(lp2480
F10000
aa(lp2481
F10000
aa(lp2482
F10000
aa(lp2483
F10000
aa(lp2484
F10000
aa(lp2485
F10000
aa(lp2486
F10000
aa(lp2487
F10000
aa(lp2488
F10000
aa(lp2489
F10000
aa(lp2490
F10000
aa(lp2491
F10000
aa(lp2492
F10000
aa(lp2493
F10000
aa(lp2494
F10000
aa(lp2495
F10000
aa(lp2496
F10000
aa(lp2497
F10000
aa(lp2498
F10000
aa(lp2499
F10000
aa(lp2500
F10000
aa(lp2501
F10000
aa(lp2502
F10000
aa(lp2503
F10000
aa(lp2504
F10000
aa(lp2505
F10000
aa(lp2506
F10000
aa(lp2507
F10000
aa(lp2508
F10000
aa(lp2509
F10000
aa(lp2510
F10000
aa(lp2511
F10000
aa(lp2512
F10000
aa(lp2513
F10000
aa(lp2514
F10000
aa(lp2515
F10000
aa(lp2516
F1400.1510000000001
aa(lp2517
F10000
aa(lp2518
F10000
aa(lp2519
F10000
aa(lp2520
F10000
aa(lp2521
F10000
aa(lp2522
F10000
aa(lp2523
F10000
aa(lp2524
F10000
aa(lp2525
F10000
aa(lp2526
F10000
aa(lp2527
F10000
aa(lp2528
F10000
aa(lp2529
F10000
aa(lp2530
F10000
aa(lp2531
F10000
aa(lp2532
F10000
aa(lp2533
F5088.1009999999997
aa(lp2534
F10000
aa(lp2535
F10000
aa(lp2536
F10000
aa(lp2537
F2031.241
aa(lp2538
F10000
aa(lp2539
F10000
aa(lp2540
F10000
aa(lp2541
F10000
aa(lp2542
F10000
aaa(lp2543
(lp2544
F10000
aa(lp2545
F10000
aa(lp2546
F10000
aa(lp2547
F1375.1859999999999
aa(lp2548
F10000
aa(lp2549
F10000
aa(lp2550
F10000
aa(lp2551
F10000
aa(lp2552
F10000
aa(lp2553
F10000
aa(lp2554
F10000
aa(lp2555
F10000
aa(lp2556
F10000
aa(lp2557
F10000
aa(lp2558
F10000
aa(lp2559
F10000
aa(lp2560
F10000
aa(lp2561
F10000
aa(lp2562
F10000
aa(lp2563
F10000
aa(lp2564
F10000
aa(lp2565
F2136.1170000000002
aa(lp2566
F10000
aa(lp2567
F10000
aa(lp2568
F10000
aa(lp2569
F10000
aa(lp2570
F10000
aa(lp2571
F10000
aa(lp2572
F10000
aa(lp2573
F10000
aa(lp2574
F3278.027
aa(lp2575
F10000
aa(lp2576
F10000
aa(lp2577
F10000
aa(lp2578
F10000
aa(lp2579
F10000
aa(lp2580
F973.15099999999995
aa(lp2581
F10000
aa(lp2582
F2827.5349999999999
aa(lp2583
F10000
aa(lp2584
F10000
aa(lp2585
F10000
aa(lp2586
F10000
aa(lp2587
F10000
aa(lp2588
F10000
aa(lp2589
F10000
aa(lp2590
F10000
aa(lp2591
F10000
aa(lp2592
F10000
aa(lp2593
F10000
aa(lp2594
F10000
aa(lp2595
F392.077
aa(lp2596
F10000
aa(lp2597
F10000
aa(lp2598
F10000
aa(lp2599
F10000
aa(lp2600
F10000
aa(lp2601
F10000
aa(lp2602
F10000
aa(lp2603
F10000
aa(lp2604
F10000
aa(lp2605
F10000
aa(lp2606
F10000
aa(lp2607
F10000
aa(lp2608
F10000
aa(lp2609
F10000
aa(lp2610
F10000
aa(lp2611
F10000
aa(lp2612
F10000
aa(lp2613
F10000
aa(lp2614
F10000
aa(lp2615
F10000
aa(lp2616
F10000
aa(lp2617
F10000
aa(lp2618
F10000
aa(lp2619
F10000
aa(lp2620
F10000
aa(lp2621
F10000
aa(lp2622
F10000
aa(lp2623
F10000
aa(lp2624
F10000
aa(lp2625
F10000
aa(lp2626
F10000
aa(lp2627
F10000
aa(lp2628
F10000
aa(lp2629
F10000
aa(lp2630
F10000
aa(lp2631
F1697.691
aa(lp2632
F10000
aa(lp2633
F10000
aa(lp2634
F3630.665
aa(lp2635
F10000
aa(lp2636
F10000
aa(lp2637
F10000
aa(lp2638
F10000
aa(lp2639
F10000
aa(lp2640
F10000
aa(lp2641
F10000
aa(lp2642
F10000
aa(lp2643
F10000
aa(lp2644
F10000
aa(lp2645
F10000
aa(lp2646
F10000
aa(lp2647
F3001.6619999999998
aa(lp2648
F10000
aa(lp2649
F10000
aa(lp2650
F10000
aa(lp2651
F10000
aa(lp2652
F10000
aa(lp2653
F4285.6859999999997
aa(lp2654
F10000
aa(lp2655
F10000
aa(lp2656
F10000
aa(lp2657
F10000
aa(lp2658
F10000
aa(lp2659
F10000
aa(lp2660
F10000
aa(lp2661
F10000
aa(lp2662
F10000
aa(lp2663
F10000
aaa(lp2664
(lp2665
F10000
aa(lp2666
F10000
aa(lp2667
F10000
aa(lp2668
F4229.384
aa(lp2669
F10000
aa(lp2670
F10000
aa(lp2671
F10000
aa(lp2672
F10000
aa(lp2673
F10000
aa(lp2674
F10000
aa(lp2675
F4821.201
aa(lp2676
F10000
aa(lp2677
F10000
aa(lp2678
F4129.1670000000004
aa(lp2679
F10000
aa(lp2680
F10000
aa(lp2681
F4970.9160000000002
aa(lp2682
F10000
aa(lp2683
F10000
aa(lp2684
F10000
aa(lp2685
F3689.2130000000002
aa(lp2686
F10000
aa(lp2687
F10000
aa(lp2688
F1774.886
aa(lp2689
F10000
aa(lp2690
F10000
aa(lp2691
F10000
aa(lp2692
F10000
aa(lp2693
F10000
aa(lp2694
F10000
aa(lp2695
F10000
aa(lp2696
F10000
aa(lp2697
F10000
aa(lp2698
F10000
aa(lp2699
F10000
aa(lp2700
F10000
aa(lp2701
F10000
aa(lp2702
F10000
aa(lp2703
F10000
aa(lp2704
F10000
aa(lp2705
F10000
aa(lp2706
F10000
aa(lp2707
F10000
aa(lp2708
F10000
aa(lp2709
F10000
aa(lp2710
F10000
aa(lp2711
F10000
aa(lp2712
F10000
aa(lp2713
F10000
aa(lp2714
F10000
aa(lp2715
F10000
aa(lp2716
F683.38300000000004
aa(lp2717
F1755.152
aa(lp2718
F10000
aa(lp2719
F10000
aa(lp2720
F10000
aa(lp2721
F10000
aa(lp2722
F10000
aa(lp2723
F10000
aa(lp2724
F10000
aa(lp2725
F10000
aa(lp2726
F10000
aa(lp2727
F10000
aa(lp2728
F10000
aa(lp2729
F10000
aa(lp2730
F10000
aa(lp2731
F10000
aa(lp2732
F10000
aa(lp2733
F10000
aa(lp2734
F10000
aa(lp2735
F10000
aa(lp2736
F10000
aa(lp2737
F10000
aa(lp2738
F10000
aa(lp2739
F10000
aa(lp2740
F10000
aa(lp2741
F10000
aa(lp2742
F10000
aa(lp2743
F10000
aa(lp2744
F10000
aa(lp2745
F10000
aa(lp2746
F10000
aa(lp2747
F10000
aa(lp2748
F10000
aa(lp2749
F10000
aa(lp2750
F2426.5250000000001
aa(lp2751
F1152.229
aa(lp2752
F10000
aa(lp2753
F10000
aa(lp2754
F10000
aa(lp2755
F10000
aa(lp2756
F780.37300000000005
aF2622.5239999999999
aF4492.6610000000001
aa(lp2757
F10000
aa(lp2758
F10000
aa(lp2759
F10000
aa(lp2760
F10000
aa(lp2761
F10000
aa(lp2762
F10000
aa(lp2763
F10000
aa(lp2764
F10000
aa(lp2765
F10000
aa(lp2766
F10000
aa(lp2767
F10000
aa(lp2768
F10000
aa(lp2769
F1788.9079999999999
aa(lp2770
F10000
aa(lp2771
F10000
aa(lp2772
F10000
aa(lp2773
F10000
aa(lp2774
F10000
aa(lp2775
F10000
aa(lp2776
F10000
aa(lp2777
F10000
aa(lp2778
F10000
aa(lp2779
F10000
aa(lp2780
F10000
aa(lp2781
F10000
aa(lp2782
F10000
aa(lp2783
F4366.0959999999995
aa(lp2784
F10000
aaa(lp2785
(lp2786
F10000
aa(lp2787
F10000
aa(lp2788
F10000
aa(lp2789
F10000
aa(lp2790
F10000
aa(lp2791
F10000
aa(lp2792
F10000
aa(lp2793
F10000
aa(lp2794
F10000
aa(lp2795
F10000
aa(lp2796
F10000
aa(lp2797
F10000
aa(lp2798
F4742.2110000000002
aa(lp2799
F10000
aa(lp2800
F10000
aa(lp2801
F10000
aa(lp2802
F1294.0039999999999
aa(lp2803
F10000
aa(lp2804
F10000
aa(lp2805
F10000
aa(lp2806
F10000
aa(lp2807
F10000
aa(lp2808
F10000
aa(lp2809
F10000
aa(lp2810
F10000
aa(lp2811
F10000
aa(lp2812
F10000
aa(lp2813
F10000
aa(lp2814
F4058.877
aa(lp2815
F10000
aa(lp2816
F10000
aa(lp2817
F10000
aa(lp2818
F10000
aa(lp2819
F10000
aa(lp2820
F10000
aa(lp2821
F10000
aa(lp2822
F10000
aa(lp2823
F10000
aa(lp2824
F10000
aa(lp2825
F10000
aa(lp2826
F10000
aa(lp2827
F692.78499999999997
aa(lp2828
F10000
aa(lp2829
F2346.2559999999999
aa(lp2830
F10000
aa(lp2831
F10000
aa(lp2832
F10000
aa(lp2833
F10000
aa(lp2834
F2626.0169999999998
aa(lp2835
F10000
aa(lp2836
F10000
aa(lp2837
F10000
aa(lp2838
F903.63499999999999
aa(lp2839
F10000
aa(lp2840
F10000
aa(lp2841
F4441.0770000000002
aa(lp2842
F10000
aa(lp2843
F2676.3510000000001
aa(lp2844
F10000
aa(lp2845
F4394.5810000000001
aa(lp2846
F10000
aa(lp2847
F10000
aa(lp2848
F10000
aa(lp2849
F10000
aa(lp2850
F10000
aa(lp2851
F10000
aa(lp2852
F10000
aa(lp2853
F10000
aa(lp2854
F10000
aa(lp2855
F10000
aa(lp2856
F10000
aa(lp2857
F10000
aa(lp2858
F10000
aa(lp2859
F10000
aa(lp2860
F10000
aa(lp2861
F10000
aa(lp2862
F10000
aa(lp2863
F10000
aa(lp2864
F10000
aa(lp2865
F10000
aa(lp2866
F10000
aa(lp2867
F10000
aa(lp2868
F10000
aa(lp2869
F230.27600000000001
aa(lp2870
F10000
aa(lp2871
F3271.5309999999999
aa(lp2872
F10000
aa(lp2873
F4662.6859999999997
aa(lp2874
F10000
aa(lp2875
F3133.5230000000001
aa(lp2876
F5111.7340000000004
aa(lp2877
F10000
aa(lp2878
F10000
aa(lp2879
F10000
aa(lp2880
F10000
aa(lp2881
F10000
aa(lp2882
F10000
aa(lp2883
F3433.5749999999998
aa(lp2884
F10000
aa(lp2885
F10000
aa(lp2886
F1731.9949999999999
aa(lp2887
F10000
aa(lp2888
F2942.1610000000001
aa(lp2889
F10000
aa(lp2890
F10000
aa(lp2891
F10000
aa(lp2892
F10000
aa(lp2893
F10000
aa(lp2894
F2943.163
aa(lp2895
F10000
aa(lp2896
F4807.0150000000003
aa(lp2897
F1409.8420000000001
aa(lp2898
F10000
aa(lp2899
F10000
aa(lp2900
F528.64599999999996
aa(lp2901
F10000
aa(lp2902
F10000
aa(lp2903
F10000
aa(lp2904
F10000
aa(lp2905
F10000
aaa(lp2906
(lp2907
F10000
aa(lp2908
F10000
aa(lp2909
F10000
aa(lp2910
F10000
aa(lp2911
F10000
aa(lp2912
F10000
aa(lp2913
F10000
aa(lp2914
F10000
aa(lp2915
F10000
aa(lp2916
F1089.2940000000001
aa(lp2917
F10000
aa(lp2918
F4188.5150000000003
aa(lp2919
F10000
aa(lp2920
F10000
aa(lp2921
F10000
aa(lp2922
F10000
aa(lp2923
F10000
aa(lp2924
F10000
aa(lp2925
F10000
aa(lp2926
F10000
aa(lp2927
F2175.0479999999998
aa(lp2928
F662.30799999999999
aa(lp2929
F3538.5129999999999
aa(lp2930
F10000
aa(lp2931
F10000
aa(lp2932
F10000
aa(lp2933
F10000
aa(lp2934
F10000
aa(lp2935
F10000
aa(lp2936
F10000
aa(lp2937
F10000
aa(lp2938
F933.69399999999996
aa(lp2939
F10000
aa(lp2940
F1995.5029999999999
aa(lp2941
F10000
aa(lp2942
F10000
aa(lp2943
F10000
aa(lp2944
F4209.3230000000003
aa(lp2945
F10000
aa(lp2946
F10000
aa(lp2947
F10000
aa(lp2948
F10000
aa(lp2949
F10000
aa(lp2950
F10000
aa(lp2951
F10000
aa(lp2952
F10000
aa(lp2953
F10000
aa(lp2954
F10000
aa(lp2955
F5222.1170000000002
aa(lp2956
F261.25900000000001
aa(lp2957
F4420.3729999999996
aa(lp2958
F10000
aa(lp2959
F10000
aa(lp2960
F10000
aa(lp2961
F10000
aa(lp2962
F10000
aa(lp2963
F10000
aa(lp2964
F10000
aa(lp2965
F10000
aa(lp2966
F10000
aa(lp2967
F10000
aa(lp2968
F10000
aa(lp2969
F10000
aa(lp2970
F2606.9119999999998
aa(lp2971
F10000
aa(lp2972
F10000
aa(lp2973
F10000
aa(lp2974
F10000
aa(lp2975
F10000
aa(lp2976
F10000
aa(lp2977
F10000
aa(lp2978
F10000
aa(lp2979
F10000
aa(lp2980
F10000
aa(lp2981
F10000
aa(lp2982
F10000
aa(lp2983
F10000
aa(lp2984
F10000
aa(lp2985
F10000
aa(lp2986
F10000
aa(lp2987
F10000
aa(lp2988
F10000
aa(lp2989
F10000
aa(lp2990
F3364.866
aa(lp2991
F10000
aa(lp2992
F2117.9409999999998
aa(lp2993
F10000
aa(lp2994
F1663.952
aF2261.817
aa(lp2995
F10000
aa(lp2996
F1592.009
aF4147.2070000000003
aa(lp2997
F4679.0640000000003
aa(lp2998
F1165.3340000000001
aa(lp2999
F10000
aa(lp3000
F10000
aa(lp3001
F10000
aa(lp3002
F10000
aa(lp3003
F10000
aa(lp3004
F10000
aa(lp3005
F10000
aa(lp3006
F10000
aa(lp3007
F1570.8499999999999
aa(lp3008
F10000
aa(lp3009
F10000
aa(lp3010
F5147.1480000000001
aa(lp3011
F10000
aa(lp3012
F10000
aa(lp3013
F10000
aa(lp3014
F10000
aa(lp3015
F10000
aa(lp3016
F10000
aa(lp3017
F10000
aa(lp3018
F10000
aa(lp3019
F10000
aa(lp3020
F3123.8229999999999
aa(lp3021
F10000
aa(lp3022
F10000
aa(lp3023
F10000
aa(lp3024
F2523.835
aa(lp3025
F10000
aa(lp3026
F2998.8890000000001
aaa(lp3027
(lp3028
F10000
aa(lp3029
F10000
aa(lp3030
F10000
aa(lp3031
F10000
aa(lp3032
F10000
aa(lp3033
F10000
aa(lp3034
F4379.4189999999999
aa(lp3035
F10000
aa(lp3036
F10000
aa(lp3037
F1834.828
aa(lp3038
F10000
aa(lp3039
F10000
aa(lp3040
F10000
aa(lp3041
F10000
aa(lp3042
F10000
aa(lp3043
F3619.2959999999998
aa(lp3044
F10000
aa(lp3045
F10000
aa(lp3046
F10000
aa(lp3047
F10000
aa(lp3048
F10000
aa(lp3049
F10000
aa(lp3050
F10000
aa(lp3051
F10000
aa(lp3052
F10000
aa(lp3053
F10000
aa(lp3054
F10000
aa(lp3055
F10000
aa(lp3056
F10000
aa(lp3057
F10000
aa(lp3058
F3257.4279999999999
aa(lp3059
F4370.1000000000004
aa(lp3060
F10000
aa(lp3061
F10000
aa(lp3062
F10000
aa(lp3063
F10000
aa(lp3064
F10000
aa(lp3065
F3718.2759999999998
aa(lp3066
F10000
aa(lp3067
F10000
aa(lp3068
F10000
aa(lp3069
F10000
aa(lp3070
F10000
aa(lp3071
F10000
aa(lp3072
F10000
aa(lp3073
F4119.6859999999997
aa(lp3074
F10000
aa(lp3075
F10000
aa(lp3076
F10000
aa(lp3077
F10000
aa(lp3078
F10000
aa(lp3079
F10000
aa(lp3080
F10000
aa(lp3081
F10000
aa(lp3082
F10000
aa(lp3083
F10000
aa(lp3084
F10000
aa(lp3085
F3929.556
aa(lp3086
F10000
aa(lp3087
F10000
aa(lp3088
F10000
aa(lp3089
F10000
aa(lp3090
F10000
aa(lp3091
F10000
aa(lp3092
F10000
aa(lp3093
F10000
aa(lp3094
F10000
aa(lp3095
F10000
aa(lp3096
F10000
aa(lp3097
F10000
aa(lp3098
F10000
aa(lp3099
F10000
aa(lp3100
F10000
aa(lp3101
F10000
aa(lp3102
F10000
aa(lp3103
F10000
aa(lp3104
F10000
aa(lp3105
F10000
aa(lp3106
F10000
aa(lp3107
F10000
aa(lp3108
F10000
aa(lp3109
F10000
aa(lp3110
F10000
aa(lp3111
F10000
aa(lp3112
F10000
aa(lp3113
F10000
aa(lp3114
F10000
aa(lp3115
F10000
aa(lp3116
F10000
aa(lp3117
F1229.317
aF1255.45
aa(lp3118
F10000
aa(lp3119
F10000
aa(lp3120
F10000
aa(lp3121
F10000
aa(lp3122
F10000
aa(lp3123
F10000
aa(lp3124
F10000
aa(lp3125
F10000
aa(lp3126
F10000
aa(lp3127
F10000
aa(lp3128
F10000
aa(lp3129
F10000
aa(lp3130
F1730.47
aa(lp3131
F10000
aa(lp3132
F1670.4949999999999
aa(lp3133
F10000
aa(lp3134
F1168.182
aa(lp3135
F10000
aa(lp3136
F3694.0680000000002
aa(lp3137
F10000
aa(lp3138
F10000
aa(lp3139
F10000
aa(lp3140
F10000
aa(lp3141
F10000
aa(lp3142
F10000
aa(lp3143
F10000
aa(lp3144
F10000
aa(lp3145
F10000
aa(lp3146
F10000
aa(lp3147
F10000
aaa(lp3148
(lp3149
F10000
aa(lp3150
F10000
aa(lp3151
F10000
aa(lp3152
F10000
aa(lp3153
F10000
aa(lp3154
F4149.1540000000005
aa(lp3155
F10000
aa(lp3156
F10000
aa(lp3157
F10000
aa(lp3158
F10000
aa(lp3159
F1304.7929999999999
aa(lp3160
F10000
aa(lp3161
F10000
aa(lp3162
F10000
aa(lp3163
F10000
aa(lp3164
F10000
aa(lp3165
F10000
aa(lp3166
F10000
aa(lp3167
F10000
aa(lp3168
F10000
aa(lp3169
F10000
aa(lp3170
F10000
aa(lp3171
F10000
aa(lp3172
F10000
aa(lp3173
F10000
aa(lp3174
F10000
aa(lp3175
F10000
aa(lp3176
F10000
aa(lp3177
F10000
aa(lp3178
F2397.8359999999998
aa(lp3179
F10000
aa(lp3180
F10000
aa(lp3181
F10000
aa(lp3182
F10000
aa(lp3183
F10000
aa(lp3184
F742.67100000000005
aa(lp3185
F10000
aa(lp3186
F10000
aa(lp3187
F10000
aa(lp3188
F10000
aa(lp3189
F10000
aa(lp3190
F10000
aa(lp3191
F10000
aa(lp3192
F10000
aa(lp3193
F10000
aa(lp3194
F10000
aa(lp3195
F10000
aa(lp3196
F10000
aa(lp3197
F10000
aa(lp3198
F10000
aa(lp3199
F10000
aa(lp3200
F10000
aa(lp3201
F10000
aa(lp3202
F10000
aa(lp3203
F10000
aa(lp3204
F10000
aa(lp3205
F10000
aa(lp3206
F10000
aa(lp3207
F10000
aa(lp3208
F10000
aa(lp3209
F10000
aa(lp3210
F10000
aa(lp3211
F10000
aa(lp3212
F10000
aa(lp3213
F10000
aa(lp3214
F10000
aa(lp3215
F10000
aa(lp3216
F10000
aa(lp3217
F10000
aa(lp3218
F10000
aa(lp3219
F10000
aa(lp3220
F10000
aa(lp3221
F10000
aa(lp3222
F10000
aa(lp3223
F10000
aa(lp3224
F10000
aa(lp3225
F10000
aa(lp3226
F10000
aa(lp3227
F10000
aa(lp3228
F1986.915
aa(lp3229
F10000
aa(lp3230
F10000
aa(lp3231
F10000
aa(lp3232
F10000
aa(lp3233
F10000
aa(lp3234
F10000
aa(lp3235
F10000
aa(lp3236
F2548.4859999999999
aa(lp3237
F2498.2570000000001
aa(lp3238
F10000
aa(lp3239
F285.16199999999998
aa(lp3240
F10000
aa(lp3241
F10000
aa(lp3242
F10000
aa(lp3243
F10000
aa(lp3244
F10000
aa(lp3245
F10000
aa(lp3246
F10000
aa(lp3247
F10000
aa(lp3248
F10000
aa(lp3249
F3219.0079999999998
aF4193.9830000000002
aa(lp3250
F10000
aa(lp3251
F10000
aa(lp3252
F1560.569
aa(lp3253
F10000
aa(lp3254
F10000
aa(lp3255
F10000
aa(lp3256
F10000
aa(lp3257
F10000
aa(lp3258
F10000
aa(lp3259
F10000
aa(lp3260
F10000
aa(lp3261
F10000
aa(lp3262
F959.34699999999998
aa(lp3263
F10000
aa(lp3264
F10000
aa(lp3265
F10000
aa(lp3266
F10000
aa(lp3267
F10000
aa(lp3268
F10000
aaa(lp3269
(lp3270
F10000
aa(lp3271
F10000
aa(lp3272
F10000
aa(lp3273
F10000
aa(lp3274
F10000
aa(lp3275
F10000
aa(lp3276
F10000
aa(lp3277
F10000
aa(lp3278
F3136.902
aa(lp3279
F10000
aa(lp3280
F10000
aa(lp3281
F10000
aa(lp3282
F10000
aa(lp3283
F10000
aa(lp3284
F10000
aa(lp3285
F10000
aa(lp3286
F10000
aa(lp3287
F10000
aa(lp3288
F10000
aa(lp3289
F10000
aa(lp3290
F10000
aa(lp3291
F10000
aa(lp3292
F10000
aa(lp3293
F1925.3710000000001
aa(lp3294
F10000
aa(lp3295
F10000
aa(lp3296
F10000
aa(lp3297
F482.34500000000003
aa(lp3298
F10000
aa(lp3299
F10000
aa(lp3300
F10000
aa(lp3301
F742.88199999999995
aa(lp3302
F10000
aa(lp3303
F10000
aa(lp3304
F10000
aa(lp3305
F10000
aa(lp3306
F10000
aa(lp3307
F4441.0749999999998
aa(lp3308
F10000
aa(lp3309
F10000
aa(lp3310
F10000
aa(lp3311
F10000
aa(lp3312
F10000
aa(lp3313
F10000
aa(lp3314
F10000
aa(lp3315
F10000
aa(lp3316
F10000
aa(lp3317
F10000
aa(lp3318
F10000
aa(lp3319
F10000
aa(lp3320
F10000
aa(lp3321
F10000
aa(lp3322
F10000
aa(lp3323
F10000
aa(lp3324
F10000
aa(lp3325
F10000
aa(lp3326
F10000
aa(lp3327
F4680.2200000000003
aa(lp3328
F10000
aa(lp3329
F10000
aa(lp3330
F10000
aa(lp3331
F10000
aa(lp3332
F10000
aa(lp3333
F10000
aa(lp3334
F10000
aa(lp3335
F10000
aa(lp3336
F10000
aa(lp3337
F10000
aa(lp3338
F10000
aa(lp3339
F10000
aa(lp3340
F10000
aa(lp3341
F10000
aa(lp3342
F10000
aa(lp3343
F10000
aa(lp3344
F10000
aa(lp3345
F10000
aa(lp3346
F10000
aa(lp3347
F10000
aa(lp3348
F10000
aa(lp3349
F10000
aa(lp3350
F10000
aa(lp3351
F10000
aa(lp3352
F10000
aa(lp3353
F10000
aa(lp3354
F10000
aa(lp3355
F10000
aa(lp3356
F10000
aa(lp3357
F10000
aa(lp3358
F10000
aa(lp3359
F10000
aa(lp3360
F10000
aa(lp3361
F10000
aa(lp3362
F10000
aa(lp3363
F10000
aa(lp3364
F10000
aa(lp3365
F10000
aa(lp3366
F10000
aa(lp3367
F10000
aa(lp3368
F10000
aa(lp3369
F10000
aa(lp3370
F10000
aa(lp3371
F10000
aa(lp3372
F10000
aa(lp3373
F10000
aa(lp3374
F10000
aa(lp3375
F10000
aa(lp3376
F10000
aa(lp3377
F10000
aa(lp3378
F4365.8310000000001
aa(lp3379
F10000
aa(lp3380
F10000
aa(lp3381
F10000
aa(lp3382
F10000
aa(lp3383
F10000
aa(lp3384
F10000
aa(lp3385
F10000
aa(lp3386
F10000
aa(lp3387
F10000
aa(lp3388
F10000
aa(lp3389
F10000
aaa(lp3390
(lp3391
F10000
aa(lp3392
F10000
aa(lp3393
F10000
aa(lp3394
F10000
aa(lp3395
F10000
aa(lp3396
F10000
aa(lp3397
F10000
aa(lp3398
F10000
aa(lp3399
F10000
aa(lp3400
F10000
aa(lp3401
F2035.057
aa(lp3402
F10000
aa(lp3403
F10000
aa(lp3404
F10000
aa(lp3405
F10000
aa(lp3406
F10000
aa(lp3407
F10000
aa(lp3408
F10000
aa(lp3409
F10000
aa(lp3410
F10000
aa(lp3411
F10000
aa(lp3412
F10000
aa(lp3413
F10000
aa(lp3414
F10000
aa(lp3415
F10000
aa(lp3416
F10000
aa(lp3417
F10000
aa(lp3418
F10000
aa(lp3419
F10000
aa(lp3420
F10000
aa(lp3421
F10000
aa(lp3422
F2726.6239999999998
aa(lp3423
F10000
aa(lp3424
F10000
aa(lp3425
F5181.6319999999996
aa(lp3426
F10000
aa(lp3427
F10000
aa(lp3428
F10000
aa(lp3429
F10000
aa(lp3430
F873.68100000000004
aa(lp3431
F10000
aa(lp3432
F10000
aa(lp3433
F10000
aa(lp3434
F10000
aa(lp3435
F10000
aa(lp3436
F10000
aa(lp3437
F3809.4000000000001
aa(lp3438
F10000
aa(lp3439
F10000
aa(lp3440
F10000
aa(lp3441
F10000
aa(lp3442
F1936.1510000000001
aa(lp3443
F10000
aa(lp3444
F10000
aa(lp3445
F10000
aa(lp3446
F10000
aa(lp3447
F10000
aa(lp3448
F5101.2560000000003
aa(lp3449
F10000
aa(lp3450
F10000
aa(lp3451
F10000
aa(lp3452
F10000
aa(lp3453
F10000
aa(lp3454
F10000
aa(lp3455
F10000
aa(lp3456
F10000
aa(lp3457
F10000
aa(lp3458
F10000
aa(lp3459
F10000
aa(lp3460
F10000
aa(lp3461
F10000
aa(lp3462
F10000
aa(lp3463
F10000
aa(lp3464
F10000
aa(lp3465
F10000
aa(lp3466
F10000
aa(lp3467
F10000
aa(lp3468
F10000
aa(lp3469
F10000
aa(lp3470
F10000
aa(lp3471
F10000
aa(lp3472
F10000
aa(lp3473
F10000
aa(lp3474
F10000
aa(lp3475
F10000
aa(lp3476
F10000
aa(lp3477
F10000
aa(lp3478
F10000
aa(lp3479
F10000
aa(lp3480
F10000
aa(lp3481
F10000
aa(lp3482
F10000
aa(lp3483
F10000
aa(lp3484
F1117.25
aa(lp3485
F10000
aa(lp3486
F10000
aa(lp3487
F10000
aa(lp3488
F10000
aa(lp3489
F10000
aa(lp3490
F527.21699999999998
aa(lp3491
F10000
aa(lp3492
F10000
aa(lp3493
F10000
aa(lp3494
F719.57500000000005
aa(lp3495
F1739.829
aa(lp3496
F2211.402
aa(lp3497
F10000
aa(lp3498
F1599.665
aa(lp3499
F10000
aa(lp3500
F10000
aa(lp3501
F10000
aa(lp3502
F10000
aa(lp3503
F10000
aa(lp3504
F1930.078
aa(lp3505
F10000
aa(lp3506
F10000
aa(lp3507
F10000
aa(lp3508
F1409.875
aa(lp3509
F10000
aa(lp3510
F10000
aaa(lp3511
(lp3512
F3218.4050000000002
aa(lp3513
F10000
aa(lp3514
F10000
aa(lp3515
F10000
aa(lp3516
F2866.9360000000001
aa(lp3517
F10000
aa(lp3518
F10000
aa(lp3519
F10000
aa(lp3520
F10000
aa(lp3521
F10000
aa(lp3522
F10000
aa(lp3523
F10000
aa(lp3524
F10000
aa(lp3525
F10000
aa(lp3526
F10000
aa(lp3527
F10000
aa(lp3528
F10000
aa(lp3529
F10000
aa(lp3530
F1925.336
aa(lp3531
F10000
aa(lp3532
F10000
aa(lp3533
F10000
aa(lp3534
F10000
aa(lp3535
F10000
aa(lp3536
F10000
aa(lp3537
F312.70699999999999
aa(lp3538
F10000
aa(lp3539
F10000
aa(lp3540
F10000
aa(lp3541
F10000
aa(lp3542
F914.17499999999995
aa(lp3543
F10000
aa(lp3544
F10000
aa(lp3545
F10000
aa(lp3546
F10000
aa(lp3547
F10000
aa(lp3548
F10000
aa(lp3549
F1696.4949999999999
aa(lp3550
F10000
aa(lp3551
F1585.0309999999999
aa(lp3552
F3769.6129999999998
aa(lp3553
F1976.2149999999999
aa(lp3554
F10000
aa(lp3555
F10000
aa(lp3556
F10000
aa(lp3557
F5082.5330000000004
aa(lp3558
F963.73699999999997
aa(lp3559
F10000
aa(lp3560
F10000
aa(lp3561
F10000
aa(lp3562
F10000
aa(lp3563
F10000
aa(lp3564
F10000
aa(lp3565
F10000
aa(lp3566
F10000
aa(lp3567
F10000
aa(lp3568
F10000
aa(lp3569
F10000
aa(lp3570
F10000
aa(lp3571
F10000
aa(lp3572
F10000
aa(lp3573
F10000
aa(lp3574
F10000
aa(lp3575
F10000
aa(lp3576
F10000
aa(lp3577
F10000
aa(lp3578
F10000
aa(lp3579
F10000
aa(lp3580
F10000
aa(lp3581
F10000
aa(lp3582
F10000
aa(lp3583
F10000
aa(lp3584
F10000
aa(lp3585
F10000
aa(lp3586
F10000
aa(lp3587
F10000
aa(lp3588
F10000
aa(lp3589
F10000
aa(lp3590
F10000
aa(lp3591
F10000
aa(lp3592
F10000
aa(lp3593
F10000
aa(lp3594
F10000
aa(lp3595
F10000
aa(lp3596
F10000
aa(lp3597
F10000
aa(lp3598
F10000
aa(lp3599
F10000
aa(lp3600
F10000
aa(lp3601
F10000
aa(lp3602
F10000
aa(lp3603
F10000
aa(lp3604
F10000
aa(lp3605
F10000
aa(lp3606
F10000
aa(lp3607
F10000
aa(lp3608
F10000
aa(lp3609
F1490.441
aa(lp3610
F10000
aa(lp3611
F10000
aa(lp3612
F10000
aa(lp3613
F10000
aa(lp3614
F10000
aa(lp3615
F10000
aa(lp3616
F10000
aa(lp3617
F10000
aa(lp3618
F10000
aa(lp3619
F898.34699999999998
aa(lp3620
F10000
aa(lp3621
F1418.146
aa(lp3622
F10000
aa(lp3623
F10000
aa(lp3624
F10000
aa(lp3625
F10000
aa(lp3626
F10000
aa(lp3627
F10000
aa(lp3628
F10000
aa(lp3629
F10000
aa(lp3630
F1430.5730000000001
aa(lp3631
F4806.451
aaa(lp3632
(lp3633
F10000
aa(lp3634
F10000
aa(lp3635
F2787.5239999999999
aa(lp3636
F10000
aa(lp3637
F10000
aa(lp3638
F10000
aa(lp3639
F10000
aa(lp3640
F10000
aa(lp3641
F10000
aa(lp3642
F10000
aa(lp3643
F10000
aa(lp3644
F10000
aa(lp3645
F10000
aa(lp3646
F10000
aa(lp3647
F10000
aa(lp3648
F10000
aa(lp3649
F10000
aa(lp3650
F3978.6390000000001
aa(lp3651
F10000
aa(lp3652
F2426.9760000000001
aa(lp3653
F10000
aa(lp3654
F10000
aa(lp3655
F10000
aa(lp3656
F10000
aa(lp3657
F10000
aa(lp3658
F1263.893
aa(lp3659
F10000
aa(lp3660
F10000
aa(lp3661
F5040.8559999999998
aa(lp3662
F10000
aa(lp3663
F10000
aa(lp3664
F10000
aa(lp3665
F10000
aa(lp3666
F10000
aa(lp3667
F10000
aa(lp3668
F10000
aa(lp3669
F10000
aa(lp3670
F10000
aa(lp3671
F1153.095
aa(lp3672
F10000
aa(lp3673
F10000
aa(lp3674
F10000
aa(lp3675
F10000
aa(lp3676
F332.72000000000003
aa(lp3677
F2987.4929999999999
aa(lp3678
F10000
aa(lp3679
F1864.933
aa(lp3680
F10000
aa(lp3681
F10000
aa(lp3682
F3809.7199999999998
aa(lp3683
F10000
aa(lp3684
F10000
aa(lp3685
F10000
aa(lp3686
F10000
aa(lp3687
F10000
aa(lp3688
F2427.0039999999999
aa(lp3689
F3208.4670000000001
aa(lp3690
F10000
aa(lp3691
F4019.1750000000002
aa(lp3692
F10000
aa(lp3693
F10000
aa(lp3694
F10000
aa(lp3695
F10000
aa(lp3696
F10000
aa(lp3697
F10000
aa(lp3698
F10000
aa(lp3699
F10000
aa(lp3700
F10000
aa(lp3701
F10000
aa(lp3702
F10000
aa(lp3703
F10000
aa(lp3704
F10000
aa(lp3705
F10000
aa(lp3706
F10000
aa(lp3707
F10000
aa(lp3708
F10000
aa(lp3709
F10000
aa(lp3710
F10000
aa(lp3711
F10000
aa(lp3712
F10000
aa(lp3713
F10000
aa(lp3714
F10000
aa(lp3715
F10000
aa(lp3716
F10000
aa(lp3717
F10000
aa(lp3718
F10000
aa(lp3719
F10000
aa(lp3720
F10000
aa(lp3721
F3585.9859999999999
aF3621.6370000000002
aa(lp3722
F10000
aa(lp3723
F10000
aa(lp3724
F10000
aa(lp3725
F10000
aa(lp3726
F10000
aa(lp3727
F10000
aa(lp3728
F10000
aa(lp3729
F10000
aa(lp3730
F10000
aa(lp3731
F10000
aa(lp3732
F10000
aa(lp3733
F10000
aa(lp3734
F10000
aa(lp3735
F10000
aa(lp3736
F10000
aa(lp3737
F10000
aa(lp3738
F10000
aa(lp3739
F358.53399999999999
aa(lp3740
F10000
aa(lp3741
F10000
aa(lp3742
F10000
aa(lp3743
F10000
aa(lp3744
F10000
aa(lp3745
F1109.3510000000001
aa(lp3746
F10000
aa(lp3747
F10000
aa(lp3748
F10000
aa(lp3749
F10000
aa(lp3750
F10000
aa(lp3751
F10000
aa(lp3752
F10000
aaa(lp3753
(lp3754
F10000
aa(lp3755
F10000
aa(lp3756
F10000
aa(lp3757
F3289.2510000000002
aa(lp3758
F10000
aa(lp3759
F10000
aa(lp3760
F10000
aa(lp3761
F10000
aa(lp3762
F10000
aa(lp3763
F10000
aa(lp3764
F10000
aa(lp3765
F10000
aa(lp3766
F10000
aa(lp3767
F10000
aa(lp3768
F10000
aa(lp3769
F10000
aa(lp3770
F10000
aa(lp3771
F10000
aa(lp3772
F10000
aa(lp3773
F10000
aa(lp3774
F10000
aa(lp3775
F10000
aa(lp3776
F10000
aa(lp3777
F10000
aa(lp3778
F10000
aa(lp3779
F10000
aa(lp3780
F10000
aa(lp3781
F10000
aa(lp3782
F10000
aa(lp3783
F4669.1750000000002
aa(lp3784
F10000
aa(lp3785
F10000
aa(lp3786
F10000
aa(lp3787
F3679.1039999999998
aa(lp3788
F10000
aa(lp3789
F10000
aa(lp3790
F10000
aa(lp3791
F10000
aa(lp3792
F10000
aa(lp3793
F10000
aa(lp3794
F10000
aa(lp3795
F10000
aa(lp3796
F10000
aa(lp3797
F10000
aa(lp3798
F10000
aa(lp3799
F10000
aa(lp3800
F10000
aa(lp3801
F10000
aa(lp3802
F10000
aa(lp3803
F10000
aa(lp3804
F10000
aa(lp3805
F10000
aa(lp3806
F10000
aa(lp3807
F10000
aa(lp3808
F10000
aa(lp3809
F10000
aa(lp3810
F10000
aa(lp3811
F4565.4449999999997
aF4670.7839999999997
aa(lp3812
F10000
aa(lp3813
F10000
aa(lp3814
F10000
aa(lp3815
F10000
aa(lp3816
F10000
aa(lp3817
F10000
aa(lp3818
F10000
aa(lp3819
F10000
aa(lp3820
F10000
aa(lp3821
F10000
aa(lp3822
F10000
aa(lp3823
F10000
aa(lp3824
F10000
aa(lp3825
F10000
aa(lp3826
F10000
aa(lp3827
F10000
aa(lp3828
F10000
aa(lp3829
F10000
aa(lp3830
F10000
aa(lp3831
F10000
aa(lp3832
F10000
aa(lp3833
F10000
aa(lp3834
F10000
aa(lp3835
F10000
aa(lp3836
F10000
aa(lp3837
F10000
aa(lp3838
F10000
aa(lp3839
F10000
aa(lp3840
F10000
aa(lp3841
F10000
aa(lp3842
F2919.1089999999999
aa(lp3843
F10000
aa(lp3844
F10000
aa(lp3845
F10000
aa(lp3846
F10000
aa(lp3847
F10000
aa(lp3848
F10000
aa(lp3849
F10000
aa(lp3850
F10000
aa(lp3851
F10000
aa(lp3852
F2763.6840000000002
aa(lp3853
F10000
aa(lp3854
F10000
aa(lp3855
F10000
aa(lp3856
F10000
aa(lp3857
F10000
aa(lp3858
F10000
aa(lp3859
F10000
aa(lp3860
F1109.3579999999999
aa(lp3861
F10000
aa(lp3862
F10000
aa(lp3863
F10000
aa(lp3864
F10000
aa(lp3865
F10000
aa(lp3866
F10000
aa(lp3867
F10000
aa(lp3868
F10000
aa(lp3869
F10000
aa(lp3870
F10000
aa(lp3871
F10000
aa(lp3872
F10000
aa(lp3873
F10000
aaa(lp3874
(lp3875
F10000
aa(lp3876
F10000
aa(lp3877
F10000
aa(lp3878
F10000
aa(lp3879
F10000
aa(lp3880
F10000
aa(lp3881
F10000
aa(lp3882
F10000
aa(lp3883
F10000
aa(lp3884
F10000
aa(lp3885
F10000
aa(lp3886
F10000
aa(lp3887
F10000
aa(lp3888
F3638.5010000000002
aa(lp3889
F10000
aa(lp3890
F10000
aa(lp3891
F10000
aa(lp3892
F10000
aa(lp3893
F10000
aa(lp3894
F10000
aa(lp3895
F10000
aa(lp3896
F3508.8589999999999
aa(lp3897
F10000
aa(lp3898
F10000
aa(lp3899
F10000
aa(lp3900
F10000
aa(lp3901
F10000
aa(lp3902
F10000
aa(lp3903
F402.69099999999997
aa(lp3904
F10000
aa(lp3905
F4580.6329999999998
aa(lp3906
F10000
aa(lp3907
F10000
aa(lp3908
F10000
aa(lp3909
F3619.076
aa(lp3910
F10000
aa(lp3911
F10000
aa(lp3912
F10000
aa(lp3913
F10000
aa(lp3914
F10000
aa(lp3915
F942.74300000000005
aa(lp3916
F10000
aa(lp3917
F10000
aa(lp3918
F10000
aa(lp3919
F10000
aa(lp3920
F10000
aa(lp3921
F10000
aa(lp3922
F10000
aa(lp3923
F10000
aa(lp3924
F1123.395
aa(lp3925
F10000
aa(lp3926
F10000
aa(lp3927
F2626.703
aa(lp3928
F10000
aa(lp3929
F2908.7359999999999
aa(lp3930
F10000
aa(lp3931
F4581.2759999999998
aa(lp3932
F10000
aa(lp3933
F10000
aa(lp3934
F1634.538
aF1721.2860000000001
aa(lp3935
F10000
aa(lp3936
F10000
aa(lp3937
F10000
aa(lp3938
F1786.26
aa(lp3939
F10000
aa(lp3940
F10000
aa(lp3941
F10000
aa(lp3942
F10000
aa(lp3943
F10000
aa(lp3944
F10000
aa(lp3945
F10000
aa(lp3946
F10000
aa(lp3947
F10000
aa(lp3948
F10000
aa(lp3949
F10000
aa(lp3950
F10000
aa(lp3951
F10000
aa(lp3952
F10000
aa(lp3953
F10000
aa(lp3954
F10000
aa(lp3955
F10000
aa(lp3956
F10000
aa(lp3957
F10000
aa(lp3958
F10000
aa(lp3959
F10000
aa(lp3960
F10000
aa(lp3961
F3871.1529999999998
aa(lp3962
F10000
aa(lp3963
F10000
aa(lp3964
F10000
aa(lp3965
F10000
aa(lp3966
F10000
aa(lp3967
F10000
aa(lp3968
F10000
aa(lp3969
F10000
aa(lp3970
F10000
aa(lp3971
F10000
aa(lp3972
F10000
aa(lp3973
F10000
aa(lp3974
F288.38200000000001
aa(lp3975
F10000
aa(lp3976
F10000
aa(lp3977
F10000
aa(lp3978
F10000
aa(lp3979
F10000
aa(lp3980
F10000
aa(lp3981
F10000
aa(lp3982
F10000
aa(lp3983
F10000
aa(lp3984
F10000
aa(lp3985
F10000
aa(lp3986
F10000
aa(lp3987
F10000
aa(lp3988
F4064.0940000000001
aa(lp3989
F10000
aa(lp3990
F3564.9549999999999
aa(lp3991
F10000
aa(lp3992
F10000
aa(lp3993
F10000
aa(lp3994
F10000
aaa(lp3995
(lp3996
F10000
aa(lp3997
F10000
aa(lp3998
F10000
aa(lp3999
F10000
aa(lp4000
F10000
aa(lp4001
F10000
aa(lp4002
F10000
aa(lp4003
F3618.6179999999999
aa(lp4004
F10000
aa(lp4005
F10000
aa(lp4006
F10000
aa(lp4007
F10000
aa(lp4008
F10000
aa(lp4009
F10000
aa(lp4010
F10000
aa(lp4011
F10000
aa(lp4012
F10000
aa(lp4013
F10000
aa(lp4014
F1132.896
aa(lp4015
F10000
aa(lp4016
F4229.9750000000004
aa(lp4017
F451.54700000000003
aa(lp4018
F3567.7460000000001
aa(lp4019
F10000
aa(lp4020
F10000
aa(lp4021
F10000
aa(lp4022
F10000
aa(lp4023
F10000
aa(lp4024
F10000
aa(lp4025
F10000
aa(lp4026
F3137.2350000000001
aa(lp4027
F3929.248
aa(lp4028
F3519.8899999999999
aa(lp4029
F10000
aa(lp4030
F10000
aa(lp4031
F10000
aa(lp4032
F3659.8490000000002
aa(lp4033
F10000
aa(lp4034
F10000
aa(lp4035
F10000
aa(lp4036
F2164.5940000000001
aa(lp4037
F10000
aa(lp4038
F10000
aa(lp4039
F10000
aa(lp4040
F10000
aa(lp4041
F10000
aa(lp4042
F10000
aa(lp4043
F4019.0940000000001
aa(lp4044
F10000
aa(lp4045
F10000
aa(lp4046
F10000
aa(lp4047
F10000
aa(lp4048
F10000
aa(lp4049
F10000
aa(lp4050
F10000
aa(lp4051
F10000
aa(lp4052
F10000
aa(lp4053
F329.90800000000002
aa(lp4054
F10000
aa(lp4055
F10000
aa(lp4056
F10000
aa(lp4057
F10000
aa(lp4058
F3505.248
aa(lp4059
F10000
aa(lp4060
F10000
aa(lp4061
F10000
aa(lp4062
F10000
aa(lp4063
F10000
aa(lp4064
F10000
aa(lp4065
F10000
aa(lp4066
F10000
aa(lp4067
F10000
aa(lp4068
F10000
aa(lp4069
F10000
aa(lp4070
F10000
aa(lp4071
F10000
aa(lp4072
F10000
aa(lp4073
F10000
aa(lp4074
F10000
aa(lp4075
F10000
aa(lp4076
F10000
aa(lp4077
F10000
aa(lp4078
F10000
aa(lp4079
F10000
aa(lp4080
F10000
aa(lp4081
F10000
aa(lp4082
F10000
aa(lp4083
F10000
aa(lp4084
F10000
aa(lp4085
F10000
aa(lp4086
F10000
aa(lp4087
F10000
aa(lp4088
F10000
aa(lp4089
F10000
aa(lp4090
F3975.6689999999999
aa(lp4091
F618.03800000000001
aa(lp4092
F4547.0460000000003
aa(lp4093
F10000
aa(lp4094
F10000
aa(lp4095
F10000
aa(lp4096
F10000
aa(lp4097
F10000
aa(lp4098
F2022.3150000000001
aa(lp4099
F10000
aa(lp4100
F10000
aa(lp4101
F10000
aa(lp4102
F10000
aa(lp4103
F10000
aa(lp4104
F10000
aa(lp4105
F10000
aa(lp4106
F10000
aa(lp4107
F10000
aa(lp4108
F10000
aa(lp4109
F10000
aa(lp4110
F10000
aa(lp4111
F10000
aa(lp4112
F10000
aa(lp4113
F10000
aa(lp4114
F728.44399999999996
aa(lp4115
F10000
aaa(lp4116
(lp4117
F10000
aa(lp4118
F10000
aa(lp4119
F1775.2760000000001
aa(lp4120
F10000
aa(lp4121
F10000
aa(lp4122
F10000
aa(lp4123
F10000
aa(lp4124
F10000
aa(lp4125
F10000
aa(lp4126
F10000
aa(lp4127
F10000
aa(lp4128
F10000
aa(lp4129
F10000
aa(lp4130
F10000
aa(lp4131
F10000
aa(lp4132
F1344.5150000000001
aa(lp4133
F10000
aa(lp4134
F10000
aa(lp4135
F10000
aa(lp4136
F10000
aa(lp4137
F10000
aa(lp4138
F10000
aa(lp4139
F10000
aa(lp4140
F10000
aa(lp4141
F10000
aa(lp4142
F10000
aa(lp4143
F10000
aa(lp4144
F874.07600000000002
aa(lp4145
F10000
aa(lp4146
F10000
aa(lp4147
F10000
aa(lp4148
F10000
aa(lp4149
F10000
aa(lp4150
F10000
aa(lp4151
F10000
aa(lp4152
F2756.1619999999998
aa(lp4153
F10000
aa(lp4154
F10000
aa(lp4155
F10000
aa(lp4156
F10000
aa(lp4157
F10000
aa(lp4158
F10000
aa(lp4159
F10000
aa(lp4160
F10000
aa(lp4161
F10000
aa(lp4162
F10000
aa(lp4163
F10000
aa(lp4164
F10000
aa(lp4165
F10000
aa(lp4166
F10000
aa(lp4167
F10000
aa(lp4168
F10000
aa(lp4169
F10000
aa(lp4170
F508.40899999999999
aF2636.8539999999998
aa(lp4171
F4491.8270000000002
aa(lp4172
F10000
aa(lp4173
F10000
aa(lp4174
F10000
aa(lp4175
F10000
aa(lp4176
F10000
aa(lp4177
F10000
aa(lp4178
F10000
aa(lp4179
F10000
aa(lp4180
F10000
aa(lp4181
F10000
aa(lp4182
F10000
aa(lp4183
F10000
aa(lp4184
F10000
aa(lp4185
F10000
aa(lp4186
F10000
aa(lp4187
F10000
aa(lp4188
F10000
aa(lp4189
F10000
aa(lp4190
F10000
aa(lp4191
F10000
aa(lp4192
F10000
aa(lp4193
F10000
aa(lp4194
F10000
aa(lp4195
F10000
aa(lp4196
F10000
aa(lp4197
F10000
aa(lp4198
F10000
aa(lp4199
F10000
aa(lp4200
F10000
aa(lp4201
F10000
aa(lp4202
F5223.2269999999999
aa(lp4203
F10000
aa(lp4204
F10000
aa(lp4205
F10000
aa(lp4206
F10000
aa(lp4207
F10000
aa(lp4208
F10000
aa(lp4209
F10000
aa(lp4210
F10000
aa(lp4211
F10000
aa(lp4212
F10000
aa(lp4213
F10000
aa(lp4214
F10000
aa(lp4215
F10000
aa(lp4216
F10000
aa(lp4217
F10000
aa(lp4218
F10000
aa(lp4219
F10000
aa(lp4220
F2071.221
aa(lp4221
F10000
aa(lp4222
F2971.366
aa(lp4223
F10000
aa(lp4224
F10000
aa(lp4225
F10000
aa(lp4226
F10000
aa(lp4227
F10000
aa(lp4228
F10000
aa(lp4229
F10000
aa(lp4230
F10000
aa(lp4231
F10000
aa(lp4232
F10000
aa(lp4233
F10000
aa(lp4234
F10000
aa(lp4235
F10000
aa(lp4236
F739.31899999999996
aaa(lp4237
(lp4238
F10000
aa(lp4239
F10000
aa(lp4240
F10000
aa(lp4241
F10000
aa(lp4242
F10000
aa(lp4243
F10000
aa(lp4244
F10000
aa(lp4245
F10000
aa(lp4246
F10000
aa(lp4247
F5121.5709999999999
aa(lp4248
F10000
aa(lp4249
F10000
aa(lp4250
F10000
aa(lp4251
F10000
aa(lp4252
F10000
aa(lp4253
F10000
aa(lp4254
F10000
aa(lp4255
F10000
aa(lp4256
F10000
aa(lp4257
F4129.058
aa(lp4258
F10000
aa(lp4259
F10000
aa(lp4260
F10000
aa(lp4261
F10000
aa(lp4262
F351.38999999999999
aa(lp4263
F4079.346
aa(lp4264
F10000
aa(lp4265
F10000
aa(lp4266
F10000
aa(lp4267
F10000
aa(lp4268
F10000
aa(lp4269
F10000
aa(lp4270
F10000
aa(lp4271
F10000
aa(lp4272
F10000
aa(lp4273
F10000
aa(lp4274
F10000
aa(lp4275
F10000
aa(lp4276
F10000
aa(lp4277
F10000
aa(lp4278
F10000
aa(lp4279
F10000
aa(lp4280
F10000
aa(lp4281
F10000
aa(lp4282
F10000
aa(lp4283
F10000
aa(lp4284
F10000
aa(lp4285
F10000
aa(lp4286
F10000
aa(lp4287
F10000
aa(lp4288
F10000
aa(lp4289
F10000
aa(lp4290
F10000
aa(lp4291
F10000
aa(lp4292
F10000
aa(lp4293
F10000
aa(lp4294
F10000
aa(lp4295
F10000
aa(lp4296
F10000
aa(lp4297
F10000
aa(lp4298
F3918.7370000000001
aa(lp4299
F10000
aa(lp4300
F10000
aa(lp4301
F10000
aa(lp4302
F10000
aa(lp4303
F10000
aa(lp4304
F10000
aa(lp4305
F10000
aa(lp4306
F317.66699999999997
aa(lp4307
F10000
aa(lp4308
F10000
aa(lp4309
F10000
aa(lp4310
F10000
aa(lp4311
F10000
aa(lp4312
F10000
aa(lp4313
F10000
aa(lp4314
F10000
aa(lp4315
F10000
aa(lp4316
F10000
aa(lp4317
F10000
aa(lp4318
F10000
aa(lp4319
F10000
aa(lp4320
F10000
aa(lp4321
F10000
aa(lp4322
F10000
aa(lp4323
F3581.165
aa(lp4324
F10000
aa(lp4325
F10000
aa(lp4326
F10000
aa(lp4327
F10000
aa(lp4328
F10000
aa(lp4329
F10000
aa(lp4330
F10000
aa(lp4331
F10000
aa(lp4332
F10000
aa(lp4333
F10000
aa(lp4334
F2472.7339999999999
aa(lp4335
F10000
aa(lp4336
F10000
aa(lp4337
F1149.579
aa(lp4338
F10000
aa(lp4339
F10000
aa(lp4340
F10000
aa(lp4341
F10000
aa(lp4342
F10000
aa(lp4343
F10000
aa(lp4344
F10000
aa(lp4345
F10000
aa(lp4346
F1399.0989999999999
aa(lp4347
F10000
aa(lp4348
F10000
aa(lp4349
F10000
aa(lp4350
F4225.4979999999996
aa(lp4351
F10000
aa(lp4352
F10000
aa(lp4353
F10000
aa(lp4354
F10000
aa(lp4355
F10000
aa(lp4356
F10000
aa(lp4357
F10000
aaa(lp4358
(lp4359
F10000
aa(lp4360
F10000
aa(lp4361
F10000
aa(lp4362
F10000
aa(lp4363
F10000
aa(lp4364
F10000
aa(lp4365
F10000
aa(lp4366
F10000
aa(lp4367
F3879.8519999999999
aa(lp4368
F10000
aa(lp4369
F10000
aa(lp4370
F10000
aa(lp4371
F4350.1949999999997
aa(lp4372
F10000
aa(lp4373
F10000
aa(lp4374
F10000
aa(lp4375
F10000
aa(lp4376
F10000
aa(lp4377
F10000
aa(lp4378
F10000
aa(lp4379
F10000
aa(lp4380
F10000
aa(lp4381
F10000
aa(lp4382
F10000
aa(lp4383
F10000
aa(lp4384
F1644.817
aa(lp4385
F10000
aa(lp4386
F10000
aa(lp4387
F10000
aa(lp4388
F10000
aa(lp4389
F10000
aa(lp4390
F10000
aa(lp4391
F10000
aa(lp4392
F10000
aa(lp4393
F10000
aa(lp4394
F1764.9079999999999
aa(lp4395
F10000
aa(lp4396
F10000
aa(lp4397
F10000
aa(lp4398
F10000
aa(lp4399
F10000
aa(lp4400
F10000
aa(lp4401
F4380.1000000000004
aa(lp4402
F10000
aa(lp4403
F2246.739
aa(lp4404
F10000
aa(lp4405
F10000
aa(lp4406
F10000
aa(lp4407
F5257.0950000000003
aF5261.6220000000003
aa(lp4408
F10000
aa(lp4409
F10000
aa(lp4410
F10000
aa(lp4411
F10000
aa(lp4412
F10000
aa(lp4413
F3139.6469999999999
aa(lp4414
F10000
aa(lp4415
F1365.2860000000001
aa(lp4416
F10000
aa(lp4417
F3879.3130000000001
aa(lp4418
F10000
aa(lp4419
F10000
aa(lp4420
F10000
aa(lp4421
F10000
aa(lp4422
F10000
aa(lp4423
F10000
aa(lp4424
F10000
aa(lp4425
F10000
aa(lp4426
F10000
aa(lp4427
F10000
aa(lp4428
F10000
aa(lp4429
F10000
aa(lp4430
F10000
aa(lp4431
F10000
aa(lp4432
F10000
aa(lp4433
F10000
aa(lp4434
F10000
aa(lp4435
F10000
aa(lp4436
F10000
aa(lp4437
F10000
aa(lp4438
F10000
aa(lp4439
F10000
aa(lp4440
F10000
aa(lp4441
F10000
aa(lp4442
F10000
aa(lp4443
F10000
aa(lp4444
F10000
aa(lp4445
F10000
aa(lp4446
F10000
aa(lp4447
F10000
aa(lp4448
F10000
aa(lp4449
F10000
aa(lp4450
F10000
aa(lp4451
F10000
aa(lp4452
F10000
aa(lp4453
F10000
aa(lp4454
F10000
aa(lp4455
F10000
aa(lp4456
F10000
aa(lp4457
F10000
aa(lp4458
F10000
aa(lp4459
F10000
aa(lp4460
F10000
aa(lp4461
F10000
aa(lp4462
F10000
aa(lp4463
F2642.471
aa(lp4464
F10000
aa(lp4465
F10000
aa(lp4466
F10000
aa(lp4467
F10000
aa(lp4468
F10000
aa(lp4469
F10000
aa(lp4470
F10000
aa(lp4471
F10000
aa(lp4472
F10000
aa(lp4473
F10000
aa(lp4474
F10000
aa(lp4475
F10000
aa(lp4476
F10000
aa(lp4477
F10000
aa(lp4478
F10000
aaa(lp4479
(lp4480
F10000
aa(lp4481
F642.74199999999996
aa(lp4482
F2045.1569999999999
aa(lp4483
F10000
aa(lp4484
F10000
aa(lp4485
F10000
aa(lp4486
F10000
aa(lp4487
F10000
aa(lp4488
F4410.7139999999999
aa(lp4489
F10000
aa(lp4490
F10000
aa(lp4491
F10000
aa(lp4492
F10000
aa(lp4493
F10000
aa(lp4494
F10000
aa(lp4495
F3649.0709999999999
aa(lp4496
F10000
aa(lp4497
F10000
aa(lp4498
F10000
aa(lp4499
F261.488
aa(lp4500
F10000
aa(lp4501
F10000
aa(lp4502
F10000
aa(lp4503
F5101.6980000000003
aa(lp4504
F10000
aa(lp4505
F10000
aa(lp4506
F10000
aa(lp4507
F10000
aa(lp4508
F10000
aa(lp4509
F10000
aa(lp4510
F10000
aa(lp4511
F10000
aa(lp4512
F10000
aa(lp4513
F10000
aa(lp4514
F4591.4309999999996
aa(lp4515
F10000
aa(lp4516
F10000
aa(lp4517
F10000
aa(lp4518
F10000
aa(lp4519
F2697.2339999999999
aa(lp4520
F332.96800000000002
aa(lp4521
F10000
aa(lp4522
F10000
aa(lp4523
F10000
aa(lp4524
F10000
aa(lp4525
F10000
aa(lp4526
F10000
aa(lp4527
F783.04200000000003
aa(lp4528
F10000
aa(lp4529
F10000
aa(lp4530
F10000
aa(lp4531
F10000
aa(lp4532
F10000
aa(lp4533
F10000
aa(lp4534
F5141.7150000000001
aa(lp4535
F10000
aa(lp4536
F713.58399999999995
aa(lp4537
F10000
aa(lp4538
F10000
aa(lp4539
F10000
aa(lp4540
F10000
aa(lp4541
F10000
aa(lp4542
F10000
aa(lp4543
F10000
aa(lp4544
F10000
aa(lp4545
F10000
aa(lp4546
F10000
aa(lp4547
F10000
aa(lp4548
F10000
aa(lp4549
F10000
aa(lp4550
F10000
aa(lp4551
F10000
aa(lp4552
F10000
aa(lp4553
F10000
aa(lp4554
F10000
aa(lp4555
F10000
aa(lp4556
F10000
aa(lp4557
F10000
aa(lp4558
F10000
aa(lp4559
F10000
aa(lp4560
F10000
aa(lp4561
F10000
aa(lp4562
F10000
aa(lp4563
F10000
aa(lp4564
F10000
aa(lp4565
F10000
aa(lp4566
F10000
aa(lp4567
F10000
aa(lp4568
F10000
aa(lp4569
F10000
aa(lp4570
F4582.1620000000003
aa(lp4571
F10000
aa(lp4572
F10000
aa(lp4573
F10000
aa(lp4574
F10000
aa(lp4575
F10000
aa(lp4576
F10000
aa(lp4577
F1339.336
aa(lp4578
F10000
aa(lp4579
F10000
aa(lp4580
F10000
aa(lp4581
F10000
aa(lp4582
F626.875
aF1785.8399999999999
aF2130.674
aa(lp4583
F10000
aa(lp4584
F10000
aa(lp4585
F10000
aa(lp4586
F10000
aa(lp4587
F10000
aa(lp4588
F10000
aa(lp4589
F10000
aa(lp4590
F10000
aa(lp4591
F10000
aa(lp4592
F10000
aa(lp4593
F10000
aa(lp4594
F10000
aa(lp4595
F10000
aa(lp4596
F10000
aa(lp4597
F10000
aa(lp4598
F10000
aa(lp4599
F10000
aaa(lp4600
(lp4601
F10000
aa(lp4602
F10000
aa(lp4603
F10000
aa(lp4604
F10000
aa(lp4605
F10000
aa(lp4606
F10000
aa(lp4607
F10000
aa(lp4608
F10000
aa(lp4609
F10000
aa(lp4610
F10000
aa(lp4611
F10000
aa(lp4612
F10000
aa(lp4613
F10000
aa(lp4614
F10000
aa(lp4615
F10000
aa(lp4616
F10000
aa(lp4617
F10000
aa(lp4618
F10000
aa(lp4619
F10000
aa(lp4620
F4872.1509999999998
aa(lp4621
F10000
aa(lp4622
F10000
aa(lp4623
F10000
aa(lp4624
F1415.6890000000001
aa(lp4625
F10000
aa(lp4626
F10000
aa(lp4627
F10000
aa(lp4628
F10000
aa(lp4629
F10000
aa(lp4630
F10000
aa(lp4631
F10000
aa(lp4632
F10000
aa(lp4633
F10000
aa(lp4634
F10000
aa(lp4635
F10000
aa(lp4636
F10000
aa(lp4637
F2785.6039999999998
aa(lp4638
F10000
aa(lp4639
F10000
aa(lp4640
F10000
aa(lp4641
F10000
aa(lp4642
F10000
aa(lp4643
F10000
aa(lp4644
F10000
aa(lp4645
F10000
aa(lp4646
F10000
aa(lp4647
F10000
aa(lp4648
F10000
aa(lp4649
F10000
aa(lp4650
F10000
aa(lp4651
F10000
aa(lp4652
F10000
aa(lp4653
F10000
aa(lp4654
F10000
aa(lp4655
F10000
aa(lp4656
F10000
aa(lp4657
F1012.354
aa(lp4658
F784.12800000000004
aa(lp4659
F10000
aa(lp4660
F10000
aa(lp4661
F10000
aa(lp4662
F10000
aa(lp4663
F10000
aa(lp4664
F10000
aa(lp4665
F1285.097
aa(lp4666
F10000
aa(lp4667
F10000
aa(lp4668
F10000
aa(lp4669
F10000
aa(lp4670
F10000
aa(lp4671
F10000
aa(lp4672
F10000
aa(lp4673
F10000
aa(lp4674
F10000
aa(lp4675
F10000
aa(lp4676
F10000
aa(lp4677
F10000
aa(lp4678
F10000
aa(lp4679
F10000
aa(lp4680
F10000
aa(lp4681
F10000
aa(lp4682
F10000
aa(lp4683
F10000
aa(lp4684
F10000
aa(lp4685
F10000
aa(lp4686
F10000
aa(lp4687
F10000
aa(lp4688
F10000
aa(lp4689
F10000
aa(lp4690
F4192.835
aa(lp4691
F2358.5920000000001
aa(lp4692
F10000
aa(lp4693
F10000
aa(lp4694
F10000
aa(lp4695
F10000
aa(lp4696
F10000
aa(lp4697
F10000
aa(lp4698
F10000
aa(lp4699
F10000
aa(lp4700
F10000
aa(lp4701
F10000
aa(lp4702
F10000
aa(lp4703
F1399.4400000000001
aa(lp4704
F10000
aa(lp4705
F10000
aa(lp4706
F2081.3800000000001
aa(lp4707
F10000
aa(lp4708
F10000
aa(lp4709
F10000
aa(lp4710
F10000
aa(lp4711
F10000
aa(lp4712
F10000
aa(lp4713
F10000
aa(lp4714
F10000
aa(lp4715
F10000
aa(lp4716
F10000
aa(lp4717
F10000
aa(lp4718
F10000
aa(lp4719
F10000
aa(lp4720
F10000
aaa(lp4721
(lp4722
F10000
aa(lp4723
F10000
aa(lp4724
F10000
aa(lp4725
F10000
aa(lp4726
F2592.02
aa(lp4727
F10000
aa(lp4728
F4028.9630000000002
aa(lp4729
F10000
aa(lp4730
F10000
aa(lp4731
F10000
aa(lp4732
F10000
aa(lp4733
F3087.5920000000001
aa(lp4734
F10000
aa(lp4735
F10000
aa(lp4736
F10000
aa(lp4737
F10000
aa(lp4738
F10000
aa(lp4739
F10000
aa(lp4740
F2525.549
aa(lp4741
F1415.1669999999999
aa(lp4742
F10000
aa(lp4743
F10000
aa(lp4744
F10000
aa(lp4745
F10000
aa(lp4746
F2587.2339999999999
aa(lp4747
F10000
aa(lp4748
F1945.694
aa(lp4749
F10000
aa(lp4750
F10000
aa(lp4751
F10000
aa(lp4752
F10000
aa(lp4753
F10000
aa(lp4754
F10000
aa(lp4755
F10000
aa(lp4756
F3980.3910000000001
aa(lp4757
F10000
aa(lp4758
F10000
aa(lp4759
F10000
aa(lp4760
F10000
aa(lp4761
F1094.395
aa(lp4762
F10000
aa(lp4763
F10000
aa(lp4764
F10000
aa(lp4765
F10000
aa(lp4766
F10000
aa(lp4767
F10000
aa(lp4768
F10000
aa(lp4769
F10000
aa(lp4770
F10000
aa(lp4771
F10000
aa(lp4772
F10000
aa(lp4773
F10000
aa(lp4774
F10000
aa(lp4775
F10000
aa(lp4776
F983.50999999999999
aa(lp4777
F10000
aa(lp4778
F10000
aa(lp4779
F10000
aa(lp4780
F10000
aa(lp4781
F10000
aa(lp4782
F10000
aa(lp4783
F10000
aa(lp4784
F10000
aa(lp4785
F10000
aa(lp4786
F10000
aa(lp4787
F10000
aa(lp4788
F10000
aa(lp4789
F10000
aa(lp4790
F10000
aa(lp4791
F10000
aa(lp4792
F10000
aa(lp4793
F10000
aa(lp4794
F10000
aa(lp4795
F10000
aa(lp4796
F10000
aa(lp4797
F10000
aa(lp4798
F10000
aa(lp4799
F10000
aa(lp4800
F10000
aa(lp4801
F10000
aa(lp4802
F10000
aa(lp4803
F10000
aa(lp4804
F10000
aa(lp4805
F10000
aa(lp4806
F10000
aa(lp4807
F10000
aa(lp4808
F10000
aa(lp4809
F10000
aa(lp4810
F10000
aa(lp4811
F10000
aa(lp4812
F10000
aa(lp4813
F4111.143
aa(lp4814
F10000
aa(lp4815
F10000
aa(lp4816
F10000
aa(lp4817
F10000
aa(lp4818
F10000
aa(lp4819
F10000
aa(lp4820
F10000
aa(lp4821
F10000
aa(lp4822
F10000
aa(lp4823
F10000
aa(lp4824
F10000
aa(lp4825
F10000
aa(lp4826
F10000
aa(lp4827
F10000
aa(lp4828
F10000
aa(lp4829
F10000
aa(lp4830
F10000
aa(lp4831
F10000
aa(lp4832
F10000
aa(lp4833
F10000
aa(lp4834
F10000
aa(lp4835
F10000
aa(lp4836
F10000
aa(lp4837
F10000
aa(lp4838
F359.26999999999998
aa(lp4839
F10000
aa(lp4840
F10000
aa(lp4841
F10000
aaa(lp4842
(lp4843
F1695.229
aa(lp4844
F10000
aa(lp4845
F10000
aa(lp4846
F10000
aa(lp4847
F10000
aa(lp4848
F10000
aa(lp4849
F10000
aa(lp4850
F10000
aa(lp4851
F10000
aa(lp4852
F10000
aa(lp4853
F10000
aa(lp4854
F10000
aa(lp4855
F10000
aa(lp4856
F10000
aa(lp4857
F10000
aa(lp4858
F10000
aa(lp4859
F10000
aa(lp4860
F10000
aa(lp4861
F4440.3800000000001
aa(lp4862
F1824.671
aa(lp4863
F10000
aa(lp4864
F10000
aa(lp4865
F10000
aa(lp4866
F4680.2240000000002
aa(lp4867
F3669.453
aa(lp4868
F10000
aa(lp4869
F10000
aa(lp4870
F10000
aa(lp4871
F3858.6309999999999
aF4936.7740000000003
aa(lp4872
F10000
aa(lp4873
F10000
aa(lp4874
F10000
aa(lp4875
F10000
aa(lp4876
F10000
aa(lp4877
F10000
aa(lp4878
F10000
aa(lp4879
F4059.5039999999999
aF4206.4960000000001
aa(lp4880
F10000
aa(lp4881
F10000
aa(lp4882
F10000
aa(lp4883
F10000
aa(lp4884
F10000
aa(lp4885
F10000
aa(lp4886
F10000
aa(lp4887
F713.553
aa(lp4888
F10000
aa(lp4889
F10000
aa(lp4890
F10000
aa(lp4891
F10000
aa(lp4892
F1896.75
aa(lp4893
F10000
aa(lp4894
F10000
aa(lp4895
F10000
aa(lp4896
F10000
aa(lp4897
F1695.51
aa(lp4898
F10000
aa(lp4899
F352.05099999999999
aa(lp4900
F10000
aa(lp4901
F10000
aa(lp4902
F10000
aa(lp4903
F10000
aa(lp4904
F10000
aa(lp4905
F10000
aa(lp4906
F10000
aa(lp4907
F10000
aa(lp4908
F10000
aa(lp4909
F10000
aa(lp4910
F10000
aa(lp4911
F10000
aa(lp4912
F10000
aa(lp4913
F10000
aa(lp4914
F10000
aa(lp4915
F10000
aa(lp4916
F10000
aa(lp4917
F10000
aa(lp4918
F10000
aa(lp4919
F10000
aa(lp4920
F10000
aa(lp4921
F10000
aa(lp4922
F10000
aa(lp4923
F10000
aa(lp4924
F10000
aa(lp4925
F10000
aa(lp4926
F10000
aa(lp4927
F10000
aa(lp4928
F10000
aa(lp4929
F3059.328
aa(lp4930
F10000
aa(lp4931
F10000
aa(lp4932
F10000
aa(lp4933
F10000
aa(lp4934
F10000
aa(lp4935
F10000
aa(lp4936
F10000
aa(lp4937
F10000
aa(lp4938
F5087.8770000000004
aa(lp4939
F10000
aa(lp4940
F10000
aa(lp4941
F10000
aa(lp4942
F10000
aa(lp4943
F10000
aa(lp4944
F10000
aa(lp4945
F10000
aa(lp4946
F868.85299999999995
aa(lp4947
F10000
aa(lp4948
F10000
aa(lp4949
F10000
aa(lp4950
F10000
aa(lp4951
F10000
aa(lp4952
F10000
aa(lp4953
F10000
aa(lp4954
F10000
aa(lp4955
F10000
aa(lp4956
F10000
aa(lp4957
F10000
aa(lp4958
F10000
aa(lp4959
F10000
aa(lp4960
F10000
aa(lp4961
F10000
aa(lp4962
F4425.75
aaa(lp4963
(lp4964
F3138.4989999999998
aa(lp4965
F10000
aa(lp4966
F10000
aa(lp4967
F2606.3490000000002
aa(lp4968
F10000
aa(lp4969
F10000
aa(lp4970
F10000
aa(lp4971
F10000
aa(lp4972
F10000
aa(lp4973
F10000
aa(lp4974
F10000
aa(lp4975
F10000
aa(lp4976
F10000
aa(lp4977
F4440.2039999999997
aa(lp4978
F10000
aa(lp4979
F10000
aa(lp4980
F1805.4169999999999
aa(lp4981
F10000
aa(lp4982
F10000
aa(lp4983
F10000
aa(lp4984
F10000
aa(lp4985
F10000
aa(lp4986
F10000
aa(lp4987
F10000
aa(lp4988
F10000
aa(lp4989
F10000
aa(lp4990
F10000
aa(lp4991
F10000
aa(lp4992
F10000
aa(lp4993
F10000
aa(lp4994
F3338.127
aa(lp4995
F10000
aa(lp4996
F10000
aa(lp4997
F10000
aa(lp4998
F10000
aa(lp4999
F522.80499999999995
aa(lp5000
F10000
aa(lp5001
F10000
aa(lp5002
F10000
aa(lp5003
F10000
aa(lp5004
F1524.8879999999999
aa(lp5005
F10000
aa(lp5006
F10000
aa(lp5007
F10000
aa(lp5008
F10000
aa(lp5009
F10000
aa(lp5010
F10000
aa(lp5011
F10000
aa(lp5012
F10000
aa(lp5013
F1394.4179999999999
aa(lp5014
F10000
aa(lp5015
F4731.1469999999999
aa(lp5016
F10000
aa(lp5017
F10000
aa(lp5018
F10000
aa(lp5019
F10000
aa(lp5020
F10000
aa(lp5021
F10000
aa(lp5022
F10000
aa(lp5023
F10000
aa(lp5024
F10000
aa(lp5025
F10000
aa(lp5026
F10000
aa(lp5027
F10000
aa(lp5028
F10000
aa(lp5029
F10000
aa(lp5030
F10000
aa(lp5031
F10000
aa(lp5032
F10000
aa(lp5033
F10000
aa(lp5034
F10000
aa(lp5035
F10000
aa(lp5036
F10000
aa(lp5037
F10000
aa(lp5038
F10000
aa(lp5039
F10000
aa(lp5040
F10000
aa(lp5041
F10000
aa(lp5042
F10000
aa(lp5043
F10000
aa(lp5044
F10000
aa(lp5045
F10000
aa(lp5046
F10000
aa(lp5047
F10000
aa(lp5048
F10000
aa(lp5049
F10000
aa(lp5050
F10000
aa(lp5051
F10000
aa(lp5052
F10000
aa(lp5053
F10000
aa(lp5054
F10000
aa(lp5055
F10000
aa(lp5056
F10000
aa(lp5057
F10000
aa(lp5058
F628.62900000000002
aa(lp5059
F10000
aa(lp5060
F10000
aa(lp5061
F628.61800000000005
aa(lp5062
F10000
aa(lp5063
F10000
aa(lp5064
F10000
aa(lp5065
F10000
aa(lp5066
F10000
aa(lp5067
F10000
aa(lp5068
F10000
aa(lp5069
F10000
aa(lp5070
F10000
aa(lp5071
F10000
aa(lp5072
F10000
aa(lp5073
F10000
aa(lp5074
F10000
aa(lp5075
F10000
aa(lp5076
F10000
aa(lp5077
F10000
aa(lp5078
F10000
aa(lp5079
F10000
aa(lp5080
F10000
aa(lp5081
F10000
aa(lp5082
F10000
aa(lp5083
F819.39499999999998
aaa(lp5084
(lp5085
F10000
aa(lp5086
F10000
aa(lp5087
F10000
aa(lp5088
F10000
aa(lp5089
F10000
aa(lp5090
F10000
aa(lp5091
F10000
aa(lp5092
F10000
aa(lp5093
F10000
aa(lp5094
F10000
aa(lp5095
F10000
aa(lp5096
F10000
aa(lp5097
F10000
aa(lp5098
F10000
aa(lp5099
F10000
aa(lp5100
F10000
aa(lp5101
F10000
aa(lp5102
F10000
aa(lp5103
F10000
aa(lp5104
F10000
aa(lp5105
F10000
aa(lp5106
F10000
aa(lp5107
F4850.54
aa(lp5108
F10000
aa(lp5109
F10000
aa(lp5110
F10000
aa(lp5111
F10000
aa(lp5112
F10000
aa(lp5113
F10000
aa(lp5114
F10000
aa(lp5115
F923.91200000000003
aa(lp5116
F10000
aa(lp5117
F2596.098
aa(lp5118
F10000
aa(lp5119
F2026.818
aa(lp5120
F10000
aa(lp5121
F10000
aa(lp5122
F10000
aa(lp5123
F10000
aa(lp5124
F10000
aa(lp5125
F10000
aa(lp5126
F10000
aa(lp5127
F10000
aa(lp5128
F853.60400000000004
aa(lp5129
F10000
aa(lp5130
F10000
aa(lp5131
F10000
aa(lp5132
F10000
aa(lp5133
F10000
aa(lp5134
F10000
aa(lp5135
F10000
aa(lp5136
F10000
aa(lp5137
F10000
aa(lp5138
F10000
aa(lp5139
F10000
aa(lp5140
F10000
aa(lp5141
F10000
aa(lp5142
F965.18799999999999
aa(lp5143
F10000
aa(lp5144
F10000
aa(lp5145
F10000
aa(lp5146
F10000
aa(lp5147
F10000
aa(lp5148
F10000
aa(lp5149
F10000
aa(lp5150
F10000
aa(lp5151
F10000
aa(lp5152
F10000
aa(lp5153
F10000
aa(lp5154
F10000
aa(lp5155
F10000
aa(lp5156
F10000
aa(lp5157
F10000
aa(lp5158
F10000
aa(lp5159
F10000
aa(lp5160
F10000
aa(lp5161
F10000
aa(lp5162
F10000
aa(lp5163
F10000
aa(lp5164
F10000
aa(lp5165
F10000
aa(lp5166
F10000
aa(lp5167
F10000
aa(lp5168
F10000
aa(lp5169
F10000
aa(lp5170
F10000
aa(lp5171
F10000
aa(lp5172
F10000
aa(lp5173
F10000
aa(lp5174
F10000
aa(lp5175
F10000
aa(lp5176
F10000
aa(lp5177
F10000
aa(lp5178
F10000
aa(lp5179
F10000
aa(lp5180
F10000
aa(lp5181
F10000
aa(lp5182
F10000
aa(lp5183
F4756.0950000000003
aa(lp5184
F10000
aa(lp5185
F10000
aa(lp5186
F10000
aa(lp5187
F2080.1289999999999
aa(lp5188
F10000
aa(lp5189
F10000
aa(lp5190
F10000
aa(lp5191
F10000
aa(lp5192
F10000
aa(lp5193
F10000
aa(lp5194
F10000
aa(lp5195
F10000
aa(lp5196
F10000
aa(lp5197
F10000
aa(lp5198
F10000
aa(lp5199
F10000
aa(lp5200
F10000
aa(lp5201
F10000
aa(lp5202
F10000
aa(lp5203
F10000
aa(lp5204
F628.30899999999997
aaa(lp5205
(lp5206
F10000
aa(lp5207
F10000
aa(lp5208
F1695.171
aa(lp5209
F10000
aa(lp5210
F10000
aa(lp5211
F10000
aa(lp5212
F10000
aa(lp5213
F10000
aa(lp5214
F10000
aa(lp5215
F10000
aa(lp5216
F10000
aa(lp5217
F10000
aa(lp5218
F10000
aa(lp5219
F4329.9660000000003
aa(lp5220
F10000
aa(lp5221
F10000
aa(lp5222
F10000
aa(lp5223
F10000
aa(lp5224
F1364.5329999999999
aa(lp5225
F10000
aa(lp5226
F10000
aa(lp5227
F10000
aa(lp5228
F1002.84
aa(lp5229
F10000
aa(lp5230
F10000
aa(lp5231
F10000
aa(lp5232
F4641.6400000000003
aa(lp5233
F10000
aa(lp5234
F10000
aa(lp5235
F10000
aa(lp5236
F10000
aa(lp5237
F10000
aa(lp5238
F10000
aa(lp5239
F1986.5150000000001
aa(lp5240
F10000
aa(lp5241
F10000
aa(lp5242
F10000
aa(lp5243
F10000
aa(lp5244
F4229.6599999999999
aa(lp5245
F10000
aa(lp5246
F10000
aa(lp5247
F10000
aa(lp5248
F10000
aa(lp5249
F5172.3329999999996
aa(lp5250
F10000
aa(lp5251
F10000
aa(lp5252
F10000
aa(lp5253
F10000
aa(lp5254
F10000
aa(lp5255
F10000
aa(lp5256
F10000
aa(lp5257
F3267.4290000000001
aa(lp5258
F10000
aa(lp5259
F10000
aa(lp5260
F10000
aa(lp5261
F10000
aa(lp5262
F10000
aa(lp5263
F483.43200000000002
aa(lp5264
F1173.6980000000001
aa(lp5265
F10000
aa(lp5266
F10000
aa(lp5267
F10000
aa(lp5268
F10000
aa(lp5269
F10000
aa(lp5270
F10000
aa(lp5271
F10000
aa(lp5272
F10000
aa(lp5273
F10000
aa(lp5274
F10000
aa(lp5275
F10000
aa(lp5276
F10000
aa(lp5277
F10000
aa(lp5278
F10000
aa(lp5279
F10000
aa(lp5280
F10000
aa(lp5281
F10000
aa(lp5282
F10000
aa(lp5283
F10000
aa(lp5284
F10000
aa(lp5285
F10000
aa(lp5286
F10000
aa(lp5287
F2447.7339999999999
aa(lp5288
F10000
aa(lp5289
F10000
aa(lp5290
F10000
aa(lp5291
F10000
aa(lp5292
F4923.2420000000002
aa(lp5293
F4943.3710000000001
aa(lp5294
F2066.7150000000001
aa(lp5295
F10000
aa(lp5296
F10000
aa(lp5297
F10000
aa(lp5298
F10000
aa(lp5299
F10000
aa(lp5300
F10000
aa(lp5301
F10000
aa(lp5302
F10000
aa(lp5303
F10000
aa(lp5304
F10000
aa(lp5305
F10000
aa(lp5306
F10000
aa(lp5307
F10000
aa(lp5308
F10000
aa(lp5309
F10000
aa(lp5310
F10000
aa(lp5311
F10000
aa(lp5312
F10000
aa(lp5313
F10000
aa(lp5314
F10000
aa(lp5315
F10000
aa(lp5316
F10000
aa(lp5317
F10000
aa(lp5318
F10000
aa(lp5319
F10000
aa(lp5320
F10000
aa(lp5321
F10000
aa(lp5322
F10000
aa(lp5323
F10000
aa(lp5324
F10000
aa(lp5325
F4575.2709999999997
aaa(lp5326
(lp5327
F10000
aa(lp5328
F10000
aa(lp5329
F10000
aa(lp5330
F10000
aa(lp5331
F10000
aa(lp5332
F10000
aa(lp5333
F3266.9520000000002
aa(lp5334
F10000
aa(lp5335
F10000
aa(lp5336
F10000
aa(lp5337
F10000
aa(lp5338
F10000
aa(lp5339
F10000
aa(lp5340
F681.69500000000005
aa(lp5341
F10000
aa(lp5342
F10000
aa(lp5343
F1454.2840000000001
aa(lp5344
F10000
aa(lp5345
F10000
aa(lp5346
F10000
aa(lp5347
F10000
aa(lp5348
F10000
aa(lp5349
F10000
aa(lp5350
F10000
aa(lp5351
F10000
aa(lp5352
F10000
aa(lp5353
F10000
aa(lp5354
F10000
aa(lp5355
F10000
aa(lp5356
F10000
aa(lp5357
F3058.3739999999998
aa(lp5358
F10000
aa(lp5359
F10000
aa(lp5360
F10000
aa(lp5361
F3428.1019999999999
aa(lp5362
F10000
aa(lp5363
F10000
aa(lp5364
F10000
aa(lp5365
F10000
aa(lp5366
F10000
aa(lp5367
F1484.6110000000001
aa(lp5368
F10000
aa(lp5369
F10000
aa(lp5370
F1836.124
aa(lp5371
F10000
aa(lp5372
F10000
aa(lp5373
F10000
aa(lp5374
F10000
aa(lp5375
F10000
aa(lp5376
F10000
aa(lp5377
F10000
aa(lp5378
F2385.6889999999999
aa(lp5379
F10000
aa(lp5380
F10000
aa(lp5381
F3440.3530000000001
aa(lp5382
F10000
aa(lp5383
F10000
aa(lp5384
F10000
aa(lp5385
F10000
aa(lp5386
F10000
aa(lp5387
F3429.9450000000002
aa(lp5388
F10000
aa(lp5389
F10000
aa(lp5390
F10000
aa(lp5391
F10000
aa(lp5392
F10000
aa(lp5393
F10000
aa(lp5394
F10000
aa(lp5395
F10000
aa(lp5396
F10000
aa(lp5397
F10000
aa(lp5398
F10000
aa(lp5399
F10000
aa(lp5400
F10000
aa(lp5401
F10000
aa(lp5402
F10000
aa(lp5403
F10000
aa(lp5404
F10000
aa(lp5405
F10000
aa(lp5406
F10000
aa(lp5407
F10000
aa(lp5408
F10000
aa(lp5409
F10000
aa(lp5410
F10000
aa(lp5411
F10000
aa(lp5412
F10000
aa(lp5413
F10000
aa(lp5414
F10000
aa(lp5415
F10000
aa(lp5416
F10000
aa(lp5417
F10000
aa(lp5418
F10000
aa(lp5419
F10000
aa(lp5420
F2462.0810000000001
aa(lp5421
F4055.2260000000001
aa(lp5422
F10000
aa(lp5423
F10000
aa(lp5424
F10000
aa(lp5425
F10000
aa(lp5426
F10000
aa(lp5427
F10000
aa(lp5428
F10000
aa(lp5429
F3583.527
aa(lp5430
F10000
aa(lp5431
F1585.5619999999999
aa(lp5432
F10000
aa(lp5433
F10000
aa(lp5434
F10000
aa(lp5435
F10000
aa(lp5436
F10000
aa(lp5437
F10000
aa(lp5438
F10000
aa(lp5439
F10000
aa(lp5440
F10000
aa(lp5441
F10000
aa(lp5442
F10000
aa(lp5443
F10000
aa(lp5444
F10000
aa(lp5445
F10000
aa(lp5446
F1430.4839999999999
aaa(lp5447
(lp5448
F10000
aa(lp5449
F10000
aa(lp5450
F10000
aa(lp5451
F2868.7460000000001
aa(lp5452
F5101.4350000000004
aa(lp5453
F10000
aa(lp5454
F1353.9580000000001
aa(lp5455
F10000
aa(lp5456
F10000
aa(lp5457
F10000
aa(lp5458
F10000
aa(lp5459
F10000
aa(lp5460
F10000
aa(lp5461
F10000
aa(lp5462
F10000
aa(lp5463
F10000
aa(lp5464
F10000
aa(lp5465
F10000
aa(lp5466
F10000
aa(lp5467
F10000
aa(lp5468
F4980.5420000000004
aa(lp5469
F10000
aa(lp5470
F10000
aa(lp5471
F10000
aa(lp5472
F10000
aa(lp5473
F10000
aa(lp5474
F10000
aa(lp5475
F10000
aa(lp5476
F10000
aa(lp5477
F3888.5639999999999
aa(lp5478
F10000
aa(lp5479
F2626.5120000000002
aa(lp5480
F10000
aa(lp5481
F10000
aa(lp5482
F10000
aa(lp5483
F10000
aa(lp5484
F904.48900000000003
aF1824.828
aa(lp5485
F10000
aa(lp5486
F10000
aa(lp5487
F10000
aa(lp5488
F10000
aa(lp5489
F10000
aa(lp5490
F10000
aa(lp5491
F10000
aa(lp5492
F10000
aa(lp5493
F10000
aa(lp5494
F10000
aa(lp5495
F3087.2370000000001
aa(lp5496
F10000
aa(lp5497
F10000
aa(lp5498
F10000
aa(lp5499
F10000
aa(lp5500
F10000
aa(lp5501
F10000
aa(lp5502
F2085.6149999999998
aa(lp5503
F10000
aa(lp5504
F3319.9789999999998
aa(lp5505
F10000
aa(lp5506
F10000
aa(lp5507
F10000
aa(lp5508
F10000
aa(lp5509
F10000
aa(lp5510
F10000
aa(lp5511
F10000
aa(lp5512
F10000
aa(lp5513
F10000
aa(lp5514
F10000
aa(lp5515
F10000
aa(lp5516
F10000
aa(lp5517
F10000
aa(lp5518
F10000
aa(lp5519
F10000
aa(lp5520
F10000
aa(lp5521
F10000
aa(lp5522
F10000
aa(lp5523
F10000
aa(lp5524
F10000
aa(lp5525
F10000
aa(lp5526
F10000
aa(lp5527
F10000
aa(lp5528
F10000
aa(lp5529
F10000
aa(lp5530
F10000
aa(lp5531
F10000
aa(lp5532
F10000
aa(lp5533
F10000
aa(lp5534
F10000
aa(lp5535
F10000
aa(lp5536
F10000
aa(lp5537
F10000
aa(lp5538
F10000
aa(lp5539
F10000
aa(lp5540
F10000
aa(lp5541
F10000
aa(lp5542
F10000
aa(lp5543
F10000
aa(lp5544
F10000
aa(lp5545
F10000
aa(lp5546
F10000
aa(lp5547
F10000
aa(lp5548
F10000
aa(lp5549
F10000
aa(lp5550
F10000
aa(lp5551
F10000
aa(lp5552
F10000
aa(lp5553
F10000
aa(lp5554
F10000
aa(lp5555
F10000
aa(lp5556
F10000
aa(lp5557
F1460.2650000000001
aa(lp5558
F10000
aa(lp5559
F10000
aa(lp5560
F10000
aa(lp5561
F10000
aa(lp5562
F10000
aa(lp5563
F10000
aa(lp5564
F10000
aa(lp5565
F10000
aa(lp5566
F10000
aa(lp5567
F10000
aaa(lp5568
(lp5569
F10000
aa(lp5570
F441.99099999999999
aa(lp5571
F10000
aa(lp5572
F10000
aa(lp5573
F10000
aa(lp5574
F10000
aa(lp5575
F4349.3630000000003
aa(lp5576
F10000
aa(lp5577
F10000
aa(lp5578
F4020.645
aa(lp5579
F10000
aa(lp5580
F10000
aa(lp5581
F10000
aa(lp5582
F10000
aa(lp5583
F10000
aa(lp5584
F10000
aa(lp5585
F10000
aa(lp5586
F10000
aa(lp5587
F10000
aa(lp5588
F10000
aa(lp5589
F10000
aa(lp5590
F10000
aa(lp5591
F10000
aa(lp5592
F10000
aa(lp5593
F10000
aa(lp5594
F10000
aa(lp5595
F10000
aa(lp5596
F10000
aa(lp5597
F3648.3389999999999
aa(lp5598
F10000
aa(lp5599
F10000
aa(lp5600
F10000
aa(lp5601
F1855.2170000000001
aa(lp5602
F10000
aa(lp5603
F10000
aa(lp5604
F10000
aa(lp5605
F10000
aa(lp5606
F10000
aa(lp5607
F10000
aa(lp5608
F10000
aa(lp5609
F4791.9179999999997
aa(lp5610
F2507.0439999999999
aa(lp5611
F10000
aa(lp5612
F10000
aa(lp5613
F242.22300000000001
aF2836.1869999999999
aa(lp5614
F10000
aa(lp5615
F10000
aa(lp5616
F10000
aa(lp5617
F10000
aa(lp5618
F664.89700000000005
aa(lp5619
F10000
aa(lp5620
F10000
aa(lp5621
F442.24700000000001
aa(lp5622
F10000
aa(lp5623
F2397.0909999999999
aa(lp5624
F10000
aa(lp5625
F10000
aa(lp5626
F10000
aa(lp5627
F10000
aa(lp5628
F1774.6869999999999
aa(lp5629
F10000
aa(lp5630
F10000
aa(lp5631
F10000
aa(lp5632
F10000
aa(lp5633
F10000
aa(lp5634
F10000
aa(lp5635
F10000
aa(lp5636
F10000
aa(lp5637
F10000
aa(lp5638
F10000
aa(lp5639
F10000
aa(lp5640
F10000
aa(lp5641
F10000
aa(lp5642
F10000
aa(lp5643
F10000
aa(lp5644
F10000
aa(lp5645
F10000
aa(lp5646
F10000
aa(lp5647
F10000
aa(lp5648
F10000
aa(lp5649
F10000
aa(lp5650
F10000
aa(lp5651
F10000
aa(lp5652
F10000
aa(lp5653
F10000
aa(lp5654
F10000
aa(lp5655
F10000
aa(lp5656
F1495.452
aa(lp5657
F10000
aa(lp5658
F10000
aa(lp5659
F10000
aa(lp5660
F10000
aa(lp5661
F10000
aa(lp5662
F10000
aa(lp5663
F10000
aa(lp5664
F10000
aa(lp5665
F1721.2570000000001
aa(lp5666
F10000
aa(lp5667
F10000
aa(lp5668
F10000
aa(lp5669
F10000
aa(lp5670
F4365.8540000000003
aa(lp5671
F10000
aa(lp5672
F10000
aa(lp5673
F10000
aa(lp5674
F10000
aa(lp5675
F10000
aa(lp5676
F10000
aa(lp5677
F10000
aa(lp5678
F10000
aa(lp5679
F10000
aa(lp5680
F10000
aa(lp5681
F10000
aa(lp5682
F1370.1990000000001
aa(lp5683
F10000
aa(lp5684
F10000
aa(lp5685
F10000
aa(lp5686
F10000
aa(lp5687
F10000
aa(lp5688
F10000
aaa(lp5689
(lp5690
F10000
aa(lp5691
F10000
aa(lp5692
F1835.348
aa(lp5693
F10000
aa(lp5694
F10000
aa(lp5695
F2255.5999999999999
aa(lp5696
F10000
aa(lp5697
F10000
aa(lp5698
F10000
aa(lp5699
F10000
aa(lp5700
F5261.5259999999998
aa(lp5701
F10000
aa(lp5702
F10000
aa(lp5703
F10000
aa(lp5704
F10000
aa(lp5705
F10000
aa(lp5706
F10000
aa(lp5707
F10000
aa(lp5708
F10000
aa(lp5709
F10000
aa(lp5710
F10000
aa(lp5711
F10000
aa(lp5712
F10000
aa(lp5713
F10000
aa(lp5714
F10000
aa(lp5715
F10000
aa(lp5716
F10000
aa(lp5717
F10000
aa(lp5718
F3629.0839999999998
aa(lp5719
F1603.72
aa(lp5720
F10000
aa(lp5721
F10000
aa(lp5722
F10000
aa(lp5723
F10000
aa(lp5724
F10000
aa(lp5725
F10000
aa(lp5726
F10000
aa(lp5727
F10000
aa(lp5728
F10000
aa(lp5729
F824.14999999999998
aa(lp5730
F10000
aa(lp5731
F10000
aa(lp5732
F10000
aa(lp5733
F10000
aa(lp5734
F1995.0830000000001
aa(lp5735
F10000
aa(lp5736
F10000
aa(lp5737
F10000
aa(lp5738
F10000
aa(lp5739
F2297.431
aa(lp5740
F10000
aa(lp5741
F10000
aa(lp5742
F10000
aa(lp5743
F10000
aa(lp5744
F10000
aa(lp5745
F10000
aa(lp5746
F1881.4659999999999
aF2201.875
aa(lp5747
F10000
aa(lp5748
F10000
aa(lp5749
F10000
aa(lp5750
F10000
aa(lp5751
F10000
aa(lp5752
F10000
aa(lp5753
F10000
aa(lp5754
F10000
aa(lp5755
F10000
aa(lp5756
F10000
aa(lp5757
F10000
aa(lp5758
F10000
aa(lp5759
F10000
aa(lp5760
F10000
aa(lp5761
F10000
aa(lp5762
F10000
aa(lp5763
F10000
aa(lp5764
F10000
aa(lp5765
F10000
aa(lp5766
F10000
aa(lp5767
F10000
aa(lp5768
F10000
aa(lp5769
F10000
aa(lp5770
F10000
aa(lp5771
F10000
aa(lp5772
F10000
aa(lp5773
F10000
aa(lp5774
F10000
aa(lp5775
F10000
aa(lp5776
F10000
aa(lp5777
F10000
aa(lp5778
F10000
aa(lp5779
F10000
aa(lp5780
F3725.239
aa(lp5781
F10000
aa(lp5782
F10000
aa(lp5783
F10000
aa(lp5784
F10000
aa(lp5785
F10000
aa(lp5786
F10000
aa(lp5787
F10000
aa(lp5788
F10000
aa(lp5789
F10000
aa(lp5790
F10000
aa(lp5791
F10000
aa(lp5792
F10000
aa(lp5793
F10000
aa(lp5794
F10000
aa(lp5795
F10000
aa(lp5796
F10000
aa(lp5797
F10000
aa(lp5798
F10000
aa(lp5799
F10000
aa(lp5800
F10000
aa(lp5801
F10000
aa(lp5802
F10000
aa(lp5803
F10000
aa(lp5804
F10000
aa(lp5805
F10000
aa(lp5806
F10000
aa(lp5807
F10000
aa(lp5808
F10000
aa(lp5809
F10000
aaa(lp5810
(lp5811
F10000
aa(lp5812
F242.48099999999999
aa(lp5813
F10000
aa(lp5814
F10000
aa(lp5815
F10000
aa(lp5816
F10000
aa(lp5817
F10000
aa(lp5818
F10000
aa(lp5819
F10000
aa(lp5820
F10000
aa(lp5821
F10000
aa(lp5822
F10000
aa(lp5823
F10000
aa(lp5824
F10000
aa(lp5825
F3729.373
aa(lp5826
F1474.646
aa(lp5827
F10000
aa(lp5828
F10000
aa(lp5829
F10000
aa(lp5830
F10000
aa(lp5831
F10000
aa(lp5832
F10000
aa(lp5833
F10000
aa(lp5834
F10000
aa(lp5835
F10000
aa(lp5836
F973.78999999999996
aa(lp5837
F10000
aa(lp5838
F10000
aa(lp5839
F10000
aa(lp5840
F10000
aa(lp5841
F10000
aa(lp5842
F10000
aa(lp5843
F10000
aa(lp5844
F10000
aa(lp5845
F10000
aa(lp5846
F924.12199999999996
aa(lp5847
F10000
aa(lp5848
F3367.8719999999998
aa(lp5849
F10000
aa(lp5850
F10000
aa(lp5851
F10000
aa(lp5852
F10000
aa(lp5853
F1483.2819999999999
aa(lp5854
F10000
aa(lp5855
F10000
aa(lp5856
F10000
aa(lp5857
F10000
aa(lp5858
F10000
aa(lp5859
F10000
aa(lp5860
F10000
aa(lp5861
F10000
aa(lp5862
F10000
aa(lp5863
F1785.6700000000001
aa(lp5864
F3568.8939999999998
aa(lp5865
F10000
aa(lp5866
F10000
aa(lp5867
F10000
aa(lp5868
F10000
aa(lp5869
F10000
aa(lp5870
F10000
aa(lp5871
F10000
aa(lp5872
F10000
aa(lp5873
F10000
aa(lp5874
F10000
aa(lp5875
F10000
aa(lp5876
F10000
aa(lp5877
F10000
aa(lp5878
F10000
aa(lp5879
F10000
aa(lp5880
F10000
aa(lp5881
F10000
aa(lp5882
F10000
aa(lp5883
F10000
aa(lp5884
F10000
aa(lp5885
F10000
aa(lp5886
F10000
aa(lp5887
F10000
aa(lp5888
F10000
aa(lp5889
F10000
aa(lp5890
F10000
aa(lp5891
F10000
aa(lp5892
F10000
aa(lp5893
F10000
aa(lp5894
F10000
aa(lp5895
F864.52700000000004
aa(lp5896
F10000
aa(lp5897
F10000
aa(lp5898
F10000
aa(lp5899
F10000
aa(lp5900
F3912.183
aa(lp5901
F10000
aa(lp5902
F10000
aa(lp5903
F10000
aa(lp5904
F10000
aa(lp5905
F10000
aa(lp5906
F10000
aa(lp5907
F10000
aa(lp5908
F10000
aa(lp5909
F10000
aa(lp5910
F2321.8389999999999
aa(lp5911
F10000
aa(lp5912
F10000
aa(lp5913
F10000
aa(lp5914
F10000
aa(lp5915
F4827.268
aa(lp5916
F10000
aa(lp5917
F10000
aa(lp5918
F10000
aa(lp5919
F10000
aa(lp5920
F10000
aa(lp5921
F657.76800000000003
aa(lp5922
F10000
aa(lp5923
F248.51400000000001
aa(lp5924
F1980.5709999999999
aa(lp5925
F10000
aa(lp5926
F10000
aa(lp5927
F3674.2849999999999
aa(lp5928
F10000
aa(lp5929
F387.93900000000002
aa(lp5930
F4406.375
aaa(lp5931
(lp5932
F10000
aa(lp5933
F10000
aa(lp5934
F10000
aa(lp5935
F10000
aa(lp5936
F10000
aa(lp5937
F10000
aa(lp5938
F10000
aa(lp5939
F10000
aa(lp5940
F10000
aa(lp5941
F10000
aa(lp5942
F10000
aa(lp5943
F3918.8090000000002
aa(lp5944
F1975.0060000000001
aa(lp5945
F10000
aa(lp5946
F10000
aa(lp5947
F10000
aa(lp5948
F10000
aa(lp5949
F1284.7080000000001
aa(lp5950
F10000
aa(lp5951
F10000
aa(lp5952
F1473.972
aa(lp5953
F10000
aa(lp5954
F2406.1680000000001
aa(lp5955
F10000
aa(lp5956
F10000
aa(lp5957
F10000
aa(lp5958
F10000
aa(lp5959
F10000
aa(lp5960
F10000
aa(lp5961
F1093.7170000000001
aa(lp5962
F10000
aa(lp5963
F3467.9760000000001
aa(lp5964
F10000
aa(lp5965
F10000
aa(lp5966
F10000
aa(lp5967
F2115.2939999999999
aa(lp5968
F10000
aa(lp5969
F10000
aa(lp5970
F10000
aa(lp5971
F10000
aa(lp5972
F10000
aa(lp5973
F10000
aa(lp5974
F10000
aa(lp5975
F10000
aa(lp5976
F10000
aa(lp5977
F10000
aa(lp5978
F10000
aa(lp5979
F10000
aa(lp5980
F10000
aa(lp5981
F10000
aa(lp5982
F10000
aa(lp5983
F10000
aa(lp5984
F10000
aa(lp5985
F10000
aa(lp5986
F10000
aa(lp5987
F10000
aa(lp5988
F10000
aa(lp5989
F10000
aa(lp5990
F10000
aa(lp5991
F10000
aa(lp5992
F10000
aa(lp5993
F10000
aa(lp5994
F10000
aa(lp5995
F10000
aa(lp5996
F10000
aa(lp5997
F10000
aa(lp5998
F10000
aa(lp5999
F10000
aa(lp6000
F10000
aa(lp6001
F10000
aa(lp6002
F10000
aa(lp6003
F10000
aa(lp6004
F10000
aa(lp6005
F10000
aa(lp6006
F10000
aa(lp6007
F10000
aa(lp6008
F10000
aa(lp6009
F10000
aa(lp6010
F10000
aa(lp6011
F10000
aa(lp6012
F10000
aa(lp6013
F10000
aa(lp6014
F10000
aa(lp6015
F10000
aa(lp6016
F10000
aa(lp6017
F1204.7439999999999
aa(lp6018
F10000
aa(lp6019
F10000
aa(lp6020
F10000
aa(lp6021
F10000
aa(lp6022
F10000
aa(lp6023
F10000
aa(lp6024
F10000
aa(lp6025
F10000
aa(lp6026
F10000
aa(lp6027
F10000
aa(lp6028
F10000
aa(lp6029
F10000
aa(lp6030
F10000
aa(lp6031
F10000
aa(lp6032
F10000
aa(lp6033
F10000
aa(lp6034
F10000
aa(lp6035
F10000
aa(lp6036
F10000
aa(lp6037
F10000
aa(lp6038
F10000
aa(lp6039
F10000
aa(lp6040
F10000
aa(lp6041
F10000
aa(lp6042
F10000
aa(lp6043
F10000
aa(lp6044
F3835.4029999999998
aa(lp6045
F10000
aa(lp6046
F10000
aa(lp6047
F628.59900000000005
aa(lp6048
F10000
aa(lp6049
F10000
aa(lp6050
F10000
aa(lp6051
F10000
aaa.