(lp1
(lp2
(lp3
F4120.0370000000003
aF4345.634
aF4401.7659999999996
aa(lp4
F4105.4849999999997
aF4417.5600000000004
aa(lp5
F4110.8059999999996
aF4366.7740000000003
aF4394.741
aF6840.991
aa(lp6
F4095.8319999999999
aF4322.1059999999998
aF4412.0379999999996
aa(lp7
F4073.991
aF4073.9920000000002
aF4314.7380000000003
aF4397.0370000000003
aa(lp8
F4263.6999999999998
aF4287.8900000000003
aa(lp9
F4266.5169999999998
aF4299.8800000000001
aa(lp10
F100000
aa(lp11
F4061.107
aF4224.9949999999999
aa(lp12
F2604.0970000000002
aF4097.9809999999998
aF4400.1369999999997
aa(lp13
F4054.625
aF4390.3010000000004
aa(lp14
F4022.2139999999999
aF4022.2150000000001
aF4402.4290000000001
aa(lp15
F3307.0630000000001
aF3912.4160000000002
aF4063.7809999999999
aF4388.9520000000002
aF4494.4049999999997
aa(lp16
F4080.5839999999998
aF4407.4660000000003
aa(lp17
F5304.8739999999998
aa(lp18
F4424.0439999999999
aa(lp19
F100000
aa(lp20
F4048.8099999999999
aF4068.3649999999998
aF4068.366
aF4068.3670000000002
aF4127.201
aF4127.2020000000002
aF4127.2030000000004
aF4127.2039999999997
aF4127.2049999999999
aF4127.2060000000001
aF4127.2070000000003
aF4143.1790000000001
aF4370.9210000000003
aF4370.9219999999996
aF4391.5690000000004
aF4461.0450000000001
aF4461.0460000000003
aF4461.0469999999996
aF4461.0479999999998
aF4461.049
aF4461.0500000000002
aF4480.0500000000002
aa(lp21
F4055.203
aF4102.8000000000002
aF4102.8010000000004
aF4117.4750000000004
aF4117.4759999999997
aF4117.4769999999999
aF4117.4780000000001
aF4126.6199999999999
aF4396.5709999999999
aF4482.3400000000001
aF4488.8239999999996
aa(lp22
F4056.748
aF4066.8220000000001
aF4111.3329999999996
aF4328.6790000000001
aF4417.6400000000003
aF4432.6859999999997
aF4512.5699999999997
aF4512.5709999999999
aF4512.5720000000001
aF4512.5730000000003
aF4512.5739999999996
aF4512.5749999999998
aF4512.576
aF4512.5770000000002
aF4512.5780000000004
aF4512.5789999999997
aF4512.5799999999999
aF4512.5810000000001
aa(lp23
F4067.0799999999999
aF4116.6639999999998
aF4460.598
aF4521.3199999999997
aF4544.3810000000003
aF4544.3819999999996
aF4555.393
aa(lp24
F4067.105
aF4117.7449999999999
aF4533.6620000000003
aF4558.8500000000004
aa(lp25
F4066.0459999999998
aF4099.2200000000003
aF4111.5039999999999
aF4509.3329999999996
aF4539.5079999999998
aF4547.9049999999997
aF4575.2700000000004
aa(lp26
F4070.6300000000001
aF4109.4309999999996
aF4517.415
aF4559.6689999999999
aF4559.6700000000001
aa(lp27
F4057.7910000000002
aF4120.3469999999998
aF4514.6350000000002
aF4548.951
aF4548.9520000000002
aaa(lp28
(lp29
F4151.7389999999996
aF4376.3289999999997
aF4439.1490000000003
aa(lp30
F4143.7939999999999
aF4149.9260000000004
aF4437.1469999999999
aa(lp31
F4149.2359999999999
aF4389.2280000000001
aF4436.1180000000004
aa(lp32
F2593.5509999999999
aF4142.1949999999997
aF4350.9350000000004
aF4368.0640000000003
aF4444.3620000000001
aF4444.3630000000003
aF4444.3639999999996
aa(lp33
F3376.6089999999999
aF4063.393
aF4121.4040000000005
aF4134.4129999999996
aF4171.5060000000003
aF4348.1559999999999
aF4434.0240000000003
aa(lp34
F4288.6480000000001
aa(lp35
F4285.3729999999996
aF4347.2709999999997
aa(lp36
F4306.2479999999996
aF4328.8699999999999
aa(lp37
F100000
aa(lp38
F100000
aa(lp39
F100000
aa(lp40
F5853.04
aa(lp41
F4075.4050000000002
aF4421.1390000000001
aa(lp42
F5368.4080000000004
aa(lp43
F4164.299
aF4164.3000000000002
aF4432.3689999999997
aa(lp44
F4236.7560000000003
aF4435.3230000000003
aa(lp45
F4080.3119999999999
aF4198.7579999999998
aF4293.6379999999999
aF4438.7089999999998
aa(lp46
F4071.9169999999999
aF4082.8490000000002
aF4082.8499999999999
aF4082.8510000000001
aF4159.9970000000003
aF4168.7129999999997
aF4398.5799999999999
aF4413.5929999999998
aF4485.915
aF4485.9160000000002
aF4485.9170000000004
aF4490.0640000000003
aa(lp47
F4072.6869999999999
aF4078.9740000000002
aF4152.3109999999997
aF4152.3119999999999
aF4152.3130000000001
aF4152.3140000000003
aF4152.3149999999996
aF4165.5600000000004
aF4412.3680000000004
aF4425.7380000000003
aF4507.2920000000004
aF4516.4170000000004
aF4516.4179999999997
aa(lp48
F4090.174
aF4134.3729999999996
aF4134.3739999999998
aF4138.5739999999996
aF4447.8249999999998
aF4530.0929999999998
aF4530.0940000000001
aF4530.0950000000003
aa(lp49
F4084.7249999999999
aF4140.5860000000002
aF4484.915
aF4564.7759999999998
aa(lp50
F4083.145
aF4135.2349999999997
aF4135.2359999999999
aF4135.2370000000001
aF4135.2380000000003
aF4135.2389999999996
aF4135.2399999999998
aF4135.241
aF4135.2420000000002
aF4556.3590000000004
aF4556.3599999999997
aF4573.2200000000003
aF5337.8950000000004
aa(lp51
F4087.221
aF4122.4210000000003
aF4520.8540000000003
aF4570.0209999999997
aa(lp52
F4084.7919999999999
aF4121.2600000000002
aF4532.6930000000002
aF4578.2740000000003
aa(lp53
F4065.3989999999999
aF4122.2079999999996
aF4529.0799999999999
aF4562.7439999999997
aF4562.7449999999999
aaa(lp54
(lp55
F4204.1450000000004
aF4437.4650000000001
aF4480.317
aa(lp56
F4191.0870000000004
aF4322.5249999999996
aF4406.1239999999998
aF4477.0240000000003
aa(lp57
F4184.8429999999998
aF4431.2719999999999
aF4484.0609999999997
aa(lp58
F4176.5230000000001
aF4385.6840000000002
aF4476.0150000000003
aa(lp59
F4188.2669999999998
aF4400.2539999999999
aF4468.9530000000004
aa(lp60
F4335.7520000000004
aF4378.8199999999997
aa(lp61
F4300.1989999999996
aF4424.3519999999999
aF6034.8530000000001
aa(lp62
F2022.6859999999999
aF4334.4979999999996
aF4362.4889999999996
aa(lp63
F100000
aa(lp64
F100000
aa(lp65
F100000
aa(lp66
F100000
aa(lp67
F100000
aa(lp68
F100000
aa(lp69
F100000
aa(lp70
F4471.4359999999997
aa(lp71
F4207.8069999999998
aF4227.2799999999997
aF4323.7969999999996
aF4491.1850000000004
aF4491.1859999999997
aa(lp72
F4100.0230000000001
aF4111.7389999999996
aF4199.2749999999996
aF4214.665
aF4423.1999999999998
aF4508.8010000000004
aF4514.1220000000003
aa(lp73
F4096.6220000000003
aF4104.6040000000003
aF4191.1130000000003
aF4254.8310000000001
aF4433.107
aF4433.1080000000002
aF4442.5230000000001
aF4523.384
aF4528.4160000000002
aa(lp74
F4103.6599999999999
aF4172.3590000000004
aF4172.3599999999997
aF4470.9380000000001
aF4482.4979999999996
aF4543.3590000000004
aF4558.7619999999997
aa(lp75
F4106.0230000000001
aF4152.0929999999998
aF4294.8980000000001
aF4517.9520000000002
aF4552.0739999999996
aF4583.3220000000001
aa(lp76
F4105.7470000000003
aF4152.375
aF4568.2049999999999
aF4591.1400000000003
aa(lp77
F4099.1840000000002
aF4141.0010000000002
aF4538.8410000000003
aF4600.6440000000002
aa(lp78
F4109.3280000000004
aF4136.2759999999998
aF4136.277
aF4136.2780000000002
aF4548.4319999999998
aF4597.7219999999998
aa(lp79
F4078.6700000000001
aF4144.1899999999996
aF4541.5649999999996
aF4575.1409999999996
aaa(lp80
(lp81
F3685.9340000000002
aF3685.9349999999999
aF4453.7389999999996
aF4521.085
aa(lp82
F4240.9769999999999
aF4315.1930000000002
aF4435.9690000000001
aF4435.9700000000003
aF4776.9660000000003
aa(lp83
F4219.9219999999996
aF4437.3999999999996
aF4518.0860000000002
aa(lp84
F4209.201
aF4223.0200000000004
aF4295.4740000000002
aF4420.4200000000001
aF4420.4210000000003
aF4515.5749999999998
aa(lp85
F4213.9449999999997
aF4412.5900000000001
aF4518.7910000000002
aa(lp86
F100000
aa(lp87
F4368.6300000000001
aF4410.4449999999997
aa(lp88
F100000
aa(lp89
F9847.4580000000005
aa(lp90
F100000
aa(lp91
F100000
aa(lp92
F100000
aa(lp93
F100000
aa(lp94
F100000
aa(lp95
F100000
aa(lp96
F4477.0500000000002
aF4510.9160000000002
aa(lp97
F2084.8969999999999
aF4222.6540000000005
aF4276.9830000000002
aF4358.0860000000002
aF4526.9179999999997
aa(lp98
F4120.4970000000003
aF4128.4579999999996
aF4251.9340000000002
aF4289.1620000000003
aF4436.1059999999998
aF4436.107
aF4448.1400000000003
aF4523.0959999999995
aF4529.991
aF4576.9669999999996
aa(lp99
F4121.6490000000003
aF4138.2240000000002
aF4227.7510000000002
aF4293.8490000000002
aF4454.5309999999999
aF4463.1289999999999
aF4547.7950000000001
aa(lp100
F4132.6350000000002
aF4208.1679999999997
aF4500.1289999999999
aF4561.3710000000001
aa(lp101
F4122.4949999999999
aF4181.6769999999997
aF4536.3389999999999
aF4573.652
aF4573.6530000000002
aF4573.6540000000005
aa(lp102
F4122.1589999999997
aF4169.308
aF4547.2259999999997
aF4601.9539999999997
aa(lp103
F4116.3680000000004
aF4156.3639999999996
aF4588.152
aF4588.1530000000002
aF4588.1540000000005
aF4602.7669999999998
aF4655.5770000000002
aa(lp104
F4119.0959999999995
aF4154.8620000000001
aF4570.5940000000001
aF4592.7749999999996
aa(lp105
F4103.4049999999997
aF4103.4059999999999
aF4156.2839999999997
aF4550.6149999999998
aF4599.2619999999997
aaa(lp106
(lp107
F4270.4380000000001
aF4277.8090000000002
aF4347.5020000000004
aF4481.6670000000004
aF4550.6120000000001
aF4550.6130000000003
aF4579.9319999999998
aa(lp108
F4271.8159999999998
aF4278.6999999999998
aF4383.5829999999996
aF4463.616
aF4544.8720000000003
aF4553.0810000000001
aF4680.8500000000004
aa(lp109
F4268.1540000000005
aF4280.7529999999997
aF4369.299
aF4456.3850000000002
aF4546.9660000000003
aF4572.9520000000002
aa(lp110
F4278.0439999999999
aF4378.6940000000004
aF4378.6949999999997
aF4378.6959999999999
aF4453.2259999999997
aF4544.8729999999996
aF4552.3190000000004
aF4628.6840000000002
aa(lp111
F4249.5529999999999
aF4259.9880000000003
aF4276.799
aF4542.8649999999998
aF4552.5529999999999
aa(lp112
F4246.6959999999999
aF4256.5230000000001
aF4271.5969999999998
aF4461.1379999999999
aF4516.7070000000003
aF4520.3119999999999
aF4527.9139999999998
aF4544.5690000000004
aa(lp113
F4248.2330000000002
aF4255.9309999999996
aF4287.8280000000004
aF4379.2910000000002
aF4450.6909999999998
aF4450.692
aF4450.6930000000002
aF4514.0680000000002
aF4518.7849999999999
aF5277.9160000000002
aa(lp114
F4246.3329999999996
aF4251.6450000000004
aF4426.1729999999998
aF4426.174
aF4511.0659999999998
aF4515.2870000000003
aa(lp115
F4219.3190000000004
aF4227.3190000000004
aF4235.1589999999997
aF4294.6059999999998
aF4372.6210000000001
aF4463.5029999999997
aF4504.8729999999996
aa(lp116
F4220.366
aF4253.8810000000003
aF4496.4719999999998
aF5004.634
aa(lp117
F4204.0389999999998
aF4212.299
aF4224.1120000000001
aF4284.1660000000002
aF4490.5630000000001
aF4490.5640000000003
aF4490.5649999999996
aF4490.5659999999998
aF4490.567
aF4490.5680000000002
aa(lp118
F4197.0990000000002
aF4203.6109999999999
aF4223.8710000000001
aF4466.1099999999997
aF4478.5519999999997
aa(lp119
F4190.5039999999999
aF4201.3029999999999
aF4239.6509999999998
aF4480.5519999999997
aF4480.5529999999999
aF4480.5540000000001
aF4480.5550000000003
aF4480.5559999999996
aF4480.5569999999998
aF4580.1700000000001
aa(lp120
F4179.7219999999998
aF4193.8140000000003
aF4208.9099999999999
aF4470.3590000000004
aF4482.152
aa(lp121
F4170.6239999999998
aF4195.4939999999997
aF4489.1310000000003
aF4493.1180000000004
aF9309.9269999999997
aa(lp122
F4180.4129999999996
aF4189.049
aF4271.4859999999999
aF4486.473
aF4506.6769999999997
aF4517.0519999999997
aF4517.0529999999999
aF4517.0540000000001
aF4517.0550000000003
aF4517.0559999999996
aF4517.0569999999998
aF4517.058
aF4517.0590000000002
aF4517.0600000000004
aF4517.0609999999997
aa(lp123
F4165.7600000000002
aF4165.7610000000004
aF4278.7179999999998
aF4305.9110000000001
aF4313.7060000000001
aF4352.9009999999998
aF4365.4610000000002
aF4381.8450000000003
aF4426.1970000000001
aF4441.3069999999998
aF4527.8220000000001
aF4535.2049999999999
aF4551.7129999999997
aa(lp124
F4149.8490000000002
aF4159.4539999999997
aF4299.5730000000003
aF4320.0100000000002
aF4454.2719999999999
aF4464.71
aF4544.5429999999997
aF4549.1729999999998
aa(lp125
F4146.2839999999997
aF4164.8670000000002
aF4277.768
aF4289.3580000000002
aF4319.6719999999996
aF4480.5699999999997
aF4487.9570000000003
aF4571.9989999999998
aa(lp126
F4142.1779999999999
aF4162.8909999999996
aF4241.1899999999996
aF4250.5770000000002
aF4400.3729999999996
aF4521.317
aF4541.0690000000004
aF4575.4040000000005
aF4575.4049999999997
aF4575.4059999999999
aF4575.4070000000002
aF4575.4080000000004
aF4575.4089999999997
aF4575.4099999999999
aF5400.0069999999996
aa(lp127
F3173.9870000000001
aF4150.8800000000001
aF4212.3209999999999
aF4220.9719999999998
aF4549.9669999999996
aF4587.5219999999999
aF4587.5230000000001
aF4587.5240000000003
aF4587.5249999999996
aF8189.4480000000003
aa(lp128
F4145.0320000000002
aF4210.0039999999999
aF4558.6980000000003
aF4583.0870000000004
aF5061.3209999999999
aa(lp129
F4137.8980000000001
aF4192.5690000000004
aF4564.9260000000004
aF4608.1440000000002
aF4615.1180000000004
aF4615.1189999999997
aF4615.1199999999999
aF4694.4830000000002
aa(lp130
F4120.5
aF4177.4620000000004
aF4562.1040000000003
aF4624.1750000000002
aa(lp131
F4107.8329999999996
aF4177.2719999999999
aF4574.8639999999996
aF4615.0309999999999
aF4801.643
aaa(lp132
(lp133
F4511.7240000000002
aa(lp134
F4311.5010000000002
aF4415.4430000000002
aF4513.4350000000004
aF4583.1629999999996
aF4608.2640000000001
aa(lp135
F4300.3010000000004
aF4404.3869999999997
aF4489.558
aF8761.3799999999992
aa(lp136
F4294.5730000000003
aF4361.3339999999998
aF4361.335
aF4490.7030000000004
aF4894.54
aa(lp137
F4469.8419999999996
aF4604.0280000000002
aa(lp138
F4285.1719999999996
aF4315.0950000000003
aF4520.2759999999998
aF4561.357
aF4748.1270000000004
aa(lp139
F2712.1030000000001
aF4298.8270000000002
aF4439.308
aF4457.9549999999999
aF4569.2939999999999
aF4569.2950000000001
aa(lp140
F3790.3319999999999
aF4288.6970000000001
aF4566.4089999999997
aa(lp141
F2312.2460000000001
aF4277.7169999999996
aF4561.9189999999999
aa(lp142
F4295.7399999999998
aF4529.3890000000001
aa(lp143
F4270.8829999999998
aF4517.2539999999999
aa(lp144
F4273.6509999999998
aF4273.652
aF4273.6530000000002
aF4497.5450000000001
aF4497.5460000000003
aF4497.5469999999996
aa(lp145
F4323.1260000000002
aF4505.7439999999997
aa(lp146
F100000
aa(lp147
F4244.4300000000003
aF4518.7110000000002
aa(lp148
F4253.723
aF4505.6450000000004
aa(lp149
F4211.8329999999996
aF4338.7269999999999
aF4366.7860000000001
aF4412.4049999999997
aF4447.6109999999999
aF4550.7340000000004
aF4738.0959999999995
aa(lp150
F100000
aa(lp151
F4522.8720000000003
aF4603.4099999999999
aa(lp152
F4183.0590000000002
aF4316.1980000000003
aF4544.9470000000001
aF4592.7529999999997
aa(lp153
F4169.9459999999999
aF4171.5739999999996
aF4237.0140000000001
aF4290.6490000000003
aF4564.4449999999997
aF4599.5060000000003
aF4686.71
aa(lp154
F4162.4089999999997
aF4251.8620000000001
aF4577.9430000000002
aF4598.54
aF4598.5410000000002
aF4598.5420000000004
aF4598.5429999999997
aa(lp155
F4155.8459999999995
aF4219.1090000000004
aF4584.2879999999996
aF4584.2889999999998
aF4619.2150000000001
aF4619.2160000000003
aF4619.2169999999996
aF4626.8770000000004
aa(lp156
F4151.7669999999998
aF4169.0900000000001
aF4169.0910000000003
aF4191.6220000000003
aF4203.4279999999999
aF4591.9949999999999
aF4630.4380000000001
aF5646.7610000000004
aa(lp157
F4137.1360000000004
aF4159.8909999999996
aF4159.8919999999998
aF4196.3800000000001
aF4196.3810000000003
aF4196.3819999999996
aF4598.3100000000004
aF4642.884
aaa(lp158
(lp159
F4509.5349999999999
aF4541.1049999999996
aF9413.5630000000001
aa(lp160
F4350.6049999999996
aF4486.2209999999995
aF4486.2219999999998
aF4544.2020000000002
aF8661.9210000000003
aa(lp161
F4402.5749999999998
aF4530.4200000000001
aa(lp162
F4390.9250000000002
aF4514.1559999999999
aa(lp163
F4330.0569999999998
aF4606.9120000000003
aa(lp164
F4345.7740000000003
aF4637.799
aF4637.8000000000002
aF4637.8010000000004
aa(lp165
F4311.2839999999997
aF4324.1099999999997
aF4492.732
aF4596.2020000000002
aF4596.2030000000004
aF4596.2039999999997
aF4596.2049999999999
aF4596.2060000000001
aF4836.3729999999996
aa(lp166
F4311.2209999999995
aF4330.2969999999996
aF4456.1760000000004
aF4482.259
aF4567.0420000000004
aF4580.2430000000004
aF4748.1530000000002
aa(lp167
F4292.8909999999996
aF4292.8919999999998
aF4292.893
aF4312.0910000000003
aF4555.9629999999997
aF4579.223
aa(lp168
F4291.3789999999999
aF4322.2690000000002
aF4543.7060000000001
aF4553.0969999999998
aa(lp169
F4282.223
aF4301.5910000000003
aF4529.7669999999998
aF4547.6009999999997
aF5799.4290000000001
aa(lp170
F4275.5039999999999
aF4304.4409999999998
aF4515.5929999999998
aF4533.3339999999998
aa(lp171
F4117.5529999999999
aF4272.4620000000004
aF4375.3590000000004
aF4516.3980000000001
aF4756.1610000000001
aa(lp172
F4327.7309999999998
aF4519.0079999999998
aa(lp173
F4275.902
aF4545.25
aa(lp174
F1486.5250000000001
aF4287.857
aF4523.6030000000001
aa(lp175
F4251.3339999999998
aF4374.0339999999997
aF4374.0349999999999
aF4459.3029999999999
aF4459.3040000000001
aF4459.3050000000003
aF4459.3059999999996
aF4459.3069999999998
aF4459.308
aF4459.3090000000002
aF4459.3100000000004
aF4487.0320000000002
aF4574.9790000000003
aa(lp176
F4539.3299999999999
aF4585.2759999999998
aa(lp177
F4236.2070000000003
aF4687.7399999999998
aa(lp178
F4212.5810000000001
aF4394.0919999999996
aF4567.5079999999998
aF4607.7709999999997
aa(lp179
F4197.6509999999998
aF4367.2489999999998
aF4575.8090000000002
aF4613.8289999999997
aa(lp180
F4194.4549999999999
aF4319.2430000000004
aF4588.7719999999999
aF4615.0690000000004
aF6303.4080000000004
aa(lp181
F4177.0150000000003
aF4290.1000000000004
aF4394.7150000000001
aF4588.902
aF4606.2150000000001
aF4656.8789999999999
aa(lp182
F4153.0010000000002
aF4201.25
aF4269.5379999999996
aF4624.5839999999998
aF4643.25
aF4643.2510000000002
aF4643.2520000000004
aa(lp183
F4142.5190000000002
aF4142.5200000000004
aF4142.5209999999997
aF4249.3050000000003
aF4608.6610000000001
aF4629.21
aF4688.7250000000004
aaa(lp184
(lp185
F4483.5739999999996
aF4570.3630000000003
aF4620.9930000000004
aa(lp186
F4608.2759999999998
aa(lp187
F4657.7160000000003
aF8077.3819999999996
aa(lp188
F4361.9269999999997
aF4422.6530000000002
aF4422.6540000000005
aF4422.6549999999997
aF4568.1589999999997
aF4676.7460000000001
aa(lp189
F4361.5659999999998
aF4461.7799999999997
aF4572.5649999999996
aF4654.643
aF4996.1639999999998
aa(lp190
F4356.3180000000002
aF4371.0969999999998
aF4662.2579999999998
aF4672.1869999999999
aF4672.1880000000001
aF5057.4920000000002
aa(lp191
F934.91700000000003
aF3564.0709999999999
aF4348.7709999999997
aF4357.9899999999998
aF4378.8940000000002
aF4462.6090000000004
aF4510.2139999999999
aF4627.21
aF4635.4340000000002
aF4648.3549999999996
aF5569.4200000000001
aF6209.5479999999998
aa(lp192
F4352.2860000000001
aF4414.2520000000004
aF4479.8819999999996
aF4620.2780000000002
aF4635.8320000000003
aa(lp193
F4328.5249999999996
aF4341.0219999999999
aF4602.8710000000001
aF4602.8720000000003
aF4602.8729999999996
aF4602.8739999999998
aF4647.8339999999998
aa(lp194
F4326.2299999999996
aF4359.6679999999997
aF4580.1390000000001
aF4609.0680000000002
aa(lp195
F4326.2380000000003
aF4580.0379999999996
aF5076.491
aa(lp196
F4314.674
aF4557.2929999999997
aa(lp197
F4310.4979999999996
aF4376.1970000000001
aF4541.6080000000002
aF4545.1469999999999
aa(lp198
F4320.5699999999997
aF4539.7960000000003
aa(lp199
F4305.7160000000003
aF4324.9870000000001
aF4565.3609999999999
aF4565.3620000000001
aF4565.3649999999998
aF4565.366
aF4565.3670000000002
aa(lp200
F2915.2330000000002
aF4324.4709999999995
aF4544.1880000000001
aF4578.0709999999999
aa(lp201
F4299.8029999999999
aF4315.29
aF4460.9669999999996
aF4530.6199999999999
aF4583.7309999999998
aF4616.991
aa(lp202
F4442.5680000000002
aF4442.5690000000004
aF4594.0029999999997
aF5759.9759999999997
aa(lp203
F4283.317
aF4628.7799999999997
aa(lp204
F4272.4700000000003
aF4491.0450000000001
aF4583.0540000000001
aF4615.335
aa(lp205
F4249.1090000000004
aF4457.3370000000004
aF4590.8879999999999
aF4631.7359999999999
aF4631.7370000000001
aF4631.7380000000003
aF4631.7389999999996
aa(lp206
F4232.7539999999999
aF4433.7160000000003
aF4598.723
aF4633.2790000000005
aa(lp207
F4202.0749999999998
aF4394.518
aF4602.8149999999996
aF4623.7160000000003
aa(lp208
F4212.0079999999998
aF4377.1149999999998
aF4632.3900000000003
aF4654.866
aa(lp209
F4143.549
aF4204.5209999999997
aF4234.3429999999998
aF4498.1199999999999
aF4610.4409999999998
aF4646.5609999999997
aF4646.5619999999999
aF4694.5680000000002
aaa(lp210
(lp211
F4421.0820000000003
aF4529.2610000000004
aF4639.9229999999998
aF4735.0029999999997
aa(lp212
F4407.7269999999999
aF4450.0010000000002
aF4553.3310000000001
aF4611.1670000000004
aF4740.7079999999996
aF4740.7089999999998
aF4740.71
aa(lp213
F3026.3130000000001
aF4401.5150000000003
aF4656.9040000000005
aF4734.4250000000002
aF4734.4260000000004
aF4734.4269999999997
aa(lp214
F4459.0450000000001
aF4605.5469999999996
aa(lp215
F4408.5050000000001
aF4674.5299999999997
aa(lp216
F4410.0529999999999
aF4712.5330000000004
aF4738.4480000000003
aa(lp217
F4392.2979999999998
aF4683.2020000000002
aF4725.326
aa(lp218
F4373.1559999999999
aF4401.0780000000004
aF4401.0789999999997
aF4664.7629999999999
aF4664.7640000000001
aF4664.7650000000003
aF4686.3760000000002
aF6470.674
aa(lp219
F4361.4470000000001
aF4376.9610000000002
aF4668.4229999999998
aF4668.424
aF4726.5469999999996
aa(lp220
F4391.1409999999996
aF4670.6369999999997
aa(lp221
F3446.6689999999999
aF4368.7619999999997
aF4767.0360000000001
aa(lp222
F9.8040000000000003
aF4353.6660000000002
aF4680.8249999999998
aa(lp223
F4347.3019999999997
aF4488.0900000000001
aF4620.1940000000004
aF4620.1949999999997
aF4651.1880000000001
aF9737.0130000000008
aa(lp224
F4344.826
aF4367.4300000000003
aF4653.1989999999996
aF4766.7640000000001
aa(lp225
F4338.8549999999996
aF4364.0860000000002
aF4670.1049999999996
aF4750.018
aa(lp226
F4358.5630000000001
aF4559.7079999999996
aF4615.3249999999998
aF4658.3379999999997
aF4728.1750000000002
aa(lp227
F4350.2579999999998
aF4469.9610000000002
aF4577.4399999999996
aF4685.1899999999996
aF4727.0600000000004
aF5608.375
aa(lp228
F4487.5230000000001
aF4612.8789999999999
aF4612.8800000000001
aF4787.9409999999998
aa(lp229
F4474.7539999999999
aF4742.3720000000003
aa(lp230
F4319.683
aF4543.8720000000003
aF4630.8729999999996
aF4710.8819999999996
aF4796.2209999999995
aa(lp231
F4310.4889999999996
aF4729.9470000000001
aF5607.1130000000003
aa(lp232
F4287.8810000000003
aF4353.5479999999998
aF4678.3919999999998
aF4786.7309999999998
aa(lp233
F4262.8029999999999
aF4794.29
aa(lp234
F4191.598
aF4191.5990000000002
aF4878.6509999999998
aa(lp235
F4151.2439999999997
aF4151.2449999999999
aF4170.223
aF4170.2240000000002
aF4263.5280000000002
aF4965.0839999999998
aF5022.1880000000001
aF5098.9340000000002
aaa(lp236
(lp237
F4447.7150000000001
aF4477.2190000000001
aF4557.451
aF4678.7579999999998
aF4781.6199999999999
aF4907.2839999999997
aF4907.2849999999999
aa(lp238
F4445.7349999999997
aF4478.5079999999998
aF4714.9790000000003
aF4782.6719999999996
aa(lp239
F4453.9290000000001
aF4552.8140000000003
aF4627.7920000000004
aF4656.4669999999996
aF4792.1629999999996
aF4792.1639999999998
aF4792.1660000000002
aa(lp240
F4545.6080000000002
aF4631.9499999999998
aF5607.5609999999997
aa(lp241
F4446.4449999999997
aF4580.9110000000001
aF4652.2610000000004
aF4709.598
aF4774.3779999999997
aa(lp242
F4437.6120000000001
aF4437.6130000000003
aF4437.6139999999996
aF4773.0799999999999
aF4773.0810000000001
aF4773.0820000000003
aF4773.0829999999996
aF4773.0839999999998
aF4773.085
aF4773.0860000000002
aF4773.0879999999997
aa(lp243
F4418.6019999999999
aF4436.4430000000002
aF4517.7839999999997
aF4564.9459999999999
aF4564.9470000000001
aF4735.8050000000003
aF4769.1300000000001
aa(lp244
F4413.4700000000003
aF4413.4709999999995
aF4413.4719999999998
aF4455.9059999999999
aF4512.0129999999999
aF4557.8590000000004
aF4748.0870000000004
aa(lp245
F4403.3310000000001
aF4727.2510000000002
aF5199.4669999999996
aa(lp246
F4395.3609999999999
aF4729.3419999999996
aa(lp247
F4409.5110000000004
aF4740.5919999999996
aa(lp248
F4391.6589999999997
aF4737.1639999999998
aF4737.165
aa(lp249
F4400.0219999999999
aF4761.3119999999999
aa(lp250
F2673.7399999999998
aF4391.6729999999998
aF4786.2169999999996
aF9255.3310000000001
aa(lp251
F4384.0900000000001
aF4615.4840000000004
aF4948.6589999999997
aa(lp252
F4395.4549999999999
aF4789.6989999999996
aF4789.6999999999998
aF5840.1940000000004
aa(lp253
F4401.9430000000002
aF4438.4960000000001
aF4791.5510000000004
aF4819.4520000000002
aF5197.4179999999997
aa(lp254
F4527.527
aF4659.8159999999998
aF5248.009
aa(lp255
F299.46499999999997
aF4434.6540000000005
aF4867.4480000000003
aa(lp256
F4387.9319999999998
aF4874.692
aa(lp257
F4386.3029999999999
aF4892.5780000000004
aa(lp258
F4384.5559999999996
aF4932.7280000000001
aF6410.0219999999999
aa(lp259
F4358.1490000000003
aF4623.2600000000002
aF4924.0060000000003
aF4989.5190000000002
aa(lp260
F4312.2700000000004
aF4641.384
aF4650.2610000000004
aF5079.7510000000002
aa(lp261
F4163.3450000000003
aF4199.0929999999998
aF4199.0940000000001
aF4240.107
aF4906.3639999999996
aF4980.3879999999999
aF4980.3890000000001
aF4980.3900000000003
aF5062.3620000000001
aF6259.3209999999999
aaa(lp262
(lp263
F4490.1989999999996
aF4511.2049999999999
aF4616.7290000000003
aF4715.482
aF4834.6189999999997
aF4834.6199999999999
aF4834.6210000000001
aa(lp264
F4498.5069999999996
aF4700.8360000000002
aF4838.6469999999999
aF4838.6480000000001
aa(lp265
F3456.2399999999998
aF4703.768
aF4822.7160000000003
aa(lp266
F4502.6480000000001
aF4724.1999999999998
aa(lp267
F4486.1059999999998
aF4533.7539999999999
aF4621.4300000000003
aF4689.6530000000002
aF4689.6540000000005
aF4718.384
aF4755.4380000000001
aF4895.9530000000004
aa(lp268
F4468.2709999999997
aF4468.2719999999999
aF4468.2730000000001
aF4502.8090000000002
aF4563.0209999999997
aF4608.4939999999997
aF4608.4949999999999
aF4608.4960000000001
aF4608.4970000000003
aF4815.3050000000003
aa(lp269
F4450.7709999999997
aF4470.0910000000003
aF4786.5709999999999
aF4812.4089999999997
aa(lp270
F4453.3620000000001
aF4453.3630000000003
aF4793.8689999999997
aa(lp271
F3657.2089999999998
aF4439.701
aF4790.1289999999999
aF4987.5249999999996
aa(lp272
F4427.4099999999999
aF4583.424
aF4804.0069999999996
aF4804.0079999999998
aF4804.009
aF4804.0100000000002
aF4804.0110000000004
aF4804.0119999999997
aa(lp273
F4438.3459999999995
aF4808.6549999999997
aa(lp274
F3926.2150000000001
aF4431.7349999999997
aF4920.1300000000001
aa(lp275
F4452.0540000000001
aF4452.0550000000003
aF4452.0559999999996
aF4844.549
aa(lp276
F4640.3689999999997
aF4855.607
aa(lp277
F4674.2669999999998
aF4674.268
aF4674.2690000000002
aF4872.5029999999997
aa(lp278
F4519.2139999999999
aF4604.8680000000004
aF4663.4840000000004
aF4663.4849999999997
aF4857.8829999999998
aa(lp279
F4509.1750000000002
aF4552.8029999999999
aF4748.5060000000003
aF4887.3559999999998
aF4915.0590000000002
aF4944.96
aa(lp280
F3736.0549999999998
aF4514.0050000000001
aF4947.0339999999997
aa(lp281
F4526.4369999999999
aF4960.8779999999997
aa(lp282
F4513.8559999999998
aF4513.857
aF4585.4409999999998
aF4927.0529999999999
aF4958.442
aa(lp283
F4666.6009999999997
aF4666.6019999999999
aF4956.6379999999999
aF4995.1270000000004
aa(lp284
F4627.1019999999999
aF5012.5159999999996
aa(lp285
F4621.5730000000003
aF4621.5739999999996
aF4621.5749999999998
aF4795.2399999999998
aF5083.1959999999999
aF5100.951
aF5100.9520000000002
aF5100.9530000000004
aF5115.5320000000002
aa(lp286
F4645.7830000000004
aF5099.9579999999996
aa(lp287
F4152.4459999999999
aF4228.6459999999997
aF4266.2979999999998
aF4673.5339999999997
aF4719.1130000000003
aF5038.8050000000003
aF5076.5360000000001
aF5083.2030000000004
aaa(lp288
(lp289
F4536.5540000000001
aF4824.8559999999998
aF4859.6959999999999
aF4871.7460000000001
aF4871.7470000000003
aa(lp290
F2874.0419999999999
aF4735.5389999999998
aF4735.54
aF4872.1440000000002
aF4872.1450000000004
aF4872.1459999999997
aa(lp291
F1542.7329999999999
aF3123.413
aF4719.1639999999998
aF7051.1599999999999
aF9146.4860000000008
aa(lp292
F4821.5150000000003
aF4885.1989999999996
aa(lp293
F4580.0500000000002
aF4738.1019999999999
aa(lp294
F4645.8440000000001
aF4645.8450000000003
aF4645.8459999999995
aF4846.4009999999998
aa(lp295
F4501.6009999999997
aF4632.5290000000005
aF4836.076
aF5077.326
aa(lp296
F4614.7860000000001
aF4827.8649999999998
aF6470.4709999999995
aa(lp297
F4468.8040000000001
aF4790.8289999999997
aF4833.8280000000004
aF5019.9809999999998
aa(lp298
F4482.4830000000002
aF4847.1549999999997
aF6158.3440000000001
aa(lp299
F4473.335
aF4893.3710000000001
aF7013.3159999999998
aa(lp300
F4462.0010000000002
aF4707.1689999999999
aF4707.1700000000001
aF4707.1710000000003
aF4848.1670000000004
aF5088.9049999999997
aa(lp301
F4454.1139999999996
aF4576.4300000000003
aF4882.0320000000002
aF5060.5820000000003
aa(lp302
F4462.2110000000002
aF4899.0410000000002
aa(lp303
F4474.0150000000003
aF4474.0159999999996
aF4474.0169999999998
aF4911.2340000000004
aa(lp304
F4531.2640000000001
aF4917.4040000000005
aa(lp305
F4577.8739999999998
aF4590.4790000000003
aF4940.076
aF4956.8860000000004
aa(lp306
F4605.9399999999996
aF4967.5510000000004
aa(lp307
F4754.3050000000003
aF4985.3050000000003
aa(lp308
F4643.3239999999996
aF4643.3249999999998
aF4678.0100000000002
aF4678.0110000000004
aF4678.0119999999997
aF4752.9210000000003
aF5017.1700000000001
aa(lp309
F4645.6059999999998
aF4678.6769999999997
aF4817.8789999999999
aF5032.7290000000003
aa(lp310
F4648.7610000000004
aF4684.8050000000003
aF4876.5460000000003
aF4876.5469999999996
aF5109.3429999999998
aa(lp311
F4655.2790000000005
aF4688.6229999999996
aF4688.6239999999998
aF4915.4970000000003
aF5080.7219999999998
aF5096.3159999999998
aF5141.6400000000003
aa(lp312
F4652.0839999999998
aF4732.2650000000003
aF4962.8850000000002
aF4962.8860000000004
aF5067.7640000000001
aF5090.9210000000003
aF5120.3419999999996
aF5888.2780000000002
aa(lp313
F4172.9899999999998
aF4286.3429999999998
aF4651.0590000000002
aF4703.4930000000004
aF4937.0190000000002
aF5059.7579999999998
aF5059.759
aF5059.7600000000002
aF5076.1400000000003
aF5099.4269999999997
aF9384.2520000000004
aaa(lp314
(lp315
F4585.2629999999999
aF4585.2640000000001
aF4585.2650000000003
aF4872.6559999999999
aF5237.9009999999998
aa(lp316
F4580.2759999999998
aF4594.0910000000003
aF4816.9129999999996
aF4900.7399999999998
aF4900.741
aF4900.7420000000002
aF4900.7430000000004
aF5106.7470000000003
aa(lp317
F4584.7489999999998
aF4617.3159999999998
aF4772.9160000000002
aF4893.7280000000001
aF4908.0889999999999
aF4908.0900000000001
aF4908.0910000000003
aa(lp318
F4569.9750000000004
aF4618.3549999999996
aF4618.3559999999998
aF4863.7330000000002
aF4895.6390000000001
aF5026.1599999999999
aa(lp319
F4557.6220000000003
aF4565.3630000000003
aF4587.7510000000002
aF4587.7520000000004
aF4756.7190000000001
aF4785.5910000000003
aF4891.1350000000002
aF4907.4960000000001
aa(lp320
F4544.8149999999996
aF4552.6199999999999
aF4568.4390000000003
aF4610.7809999999999
aF4680.3559999999998
aF4680.357
aF4872.5860000000002
aF4872.5870000000004
aF4872.5879999999997
aF4888.8540000000003
aF4893.7250000000004
aF4936.3590000000004
aa(lp321
F4557.4390000000003
aF4664.0150000000003
aF4664.0159999999996
aF4664.0169999999998
aF4880.9470000000001
aF4893.8810000000003
aF4996.5609999999997
aa(lp322
F4534.0010000000002
aF4544.7740000000003
aF4565.3239999999996
aF4883.5860000000002
aF4883.5870000000004
aF4883.5879999999997
aF4883.5889999999999
aF4883.5900000000001
aF4883.5910000000003
aF4883.5919999999996
aF4883.5929999999998
aF5036.817
aa(lp323
F4521.723
aF4558.9120000000003
aF4889.6419999999998
aF4927.183
aF9545.1190000000006
aa(lp324
F4504.857
aF4516.9139999999998
aF4572.2479999999996
aF4899.2489999999998
aF4927.1639999999998
aa(lp325
F4500.8029999999999
aF4511.0469999999996
aF4617.4290000000001
aF4617.4300000000003
aF4887.6859999999997
aF4893.0699999999997
aF4903.2690000000002
aF6248.1350000000002
aa(lp326
F4491.1509999999998
aF4505.7610000000004
aF4605.616
aF4895.134
aF4895.1350000000002
aF4895.1360000000004
aF4895.1369999999997
aF4895.1379999999999
aF4915.2790000000005
aa(lp327
F4484.107
aF4491.277
aF4501.0649999999996
aF4668.442
aF4918.491
aF4926.7910000000002
aF4946.1130000000003
aa(lp328
F4481.9309999999996
aF4499.7349999999997
aF4631.049
aF4631.0500000000002
aF4924.7309999999998
aF4924.732
aF4924.7330000000002
aF4924.7340000000004
aF4924.7349999999997
aF4924.7359999999999
aF4924.7370000000001
aF4924.7380000000003
aF4924.7389999999996
aF4924.7399999999998
aF4932.1989999999996
aF4944.6450000000004
aF4944.6459999999997
aF4944.6469999999999
aa(lp329
F4478.9080000000004
aF4488.3040000000001
aF4503.4790000000003
aF4706.0569999999998
aF4948.1899999999996
aF4968.0069999999996
aa(lp330
F4492.5810000000001
aF4539.1210000000001
aF4539.1220000000003
aF4545.058
aF4843.4830000000002
aF4927.7380000000003
aF4969.6559999999999
aF4974.2529999999997
aa(lp331
F4603.335
aF4612.1580000000004
aF4681.0349999999999
aF4705.8199999999997
aF4787.0820000000003
aF4801.5959999999995
aF4801.5969999999998
aF4801.598
aF4824.5150000000003
aF4975.0889999999999
aF4985.5140000000001
aF4998.1559999999999
aa(lp332
F4614.7560000000003
aF4624.3220000000001
aF4681.0299999999997
aF4691.8059999999996
aF4816.3680000000004
aF4816.3689999999997
aF4850.7969999999996
aF4991.1689999999999
aF5009.433
aF5046.6660000000002
aa(lp333
F4629.9380000000001
aF4629.9390000000003
aF4629.9399999999996
aF4644.9440000000004
aF4644.9449999999997
aF4644.9459999999999
aF4644.9470000000001
aF4687.2420000000002
aF4847.165
aF5024.7269999999999
aF5024.7280000000001
aF5497.9639999999999
aa(lp334
F4657.335
aF4657.3360000000002
aF4657.3370000000004
aF4689.4560000000001
aF4689.4570000000003
aF4689.4579999999996
aF4689.4589999999998
aF4689.46
aF4689.4610000000002
aF4872.317
aF4905.6989999999996
aF5033.4610000000002
aF5043.9780000000001
aF5086.5550000000003
aa(lp335
F4654.3890000000001
aF4664.6549999999997
aF4664.6559999999999
aF4664.6570000000002
aF4664.6580000000004
aF4693.9499999999998
aF4920.3149999999996
aF4944.6719999999996
aF5060.0829999999996
aF5076.1279999999997
aF5168.6239999999998
aa(lp336
F4666.4539999999997
aF4690.7550000000001
aF4697.8680000000004
aF4972.2389999999996
aF5154.1899999999996
aa(lp337
F4667.7569999999996
aF4701.6120000000001
aF4701.6130000000003
aF4701.6139999999996
aF4701.6149999999998
aF5021.9030000000002
aF5161.9660000000003
aa(lp338
F4666.6090000000004
aF4699.2489999999998
aF5032.8230000000003
aF5032.8239999999996
aF5032.8249999999998
aF5097.6540000000005
aF5136.7039999999997
aa(lp339
F4203.1220000000003
aF4287.8609999999999
aF4680.9380000000001
aF4680.9390000000003
aF4680.9399999999996
aF4702.174
aF4705.2619999999997
aF4787.6300000000001
aF5012.3509999999997
aF5061.3599999999997
aF5098.6530000000002
aF5117.8990000000003
aF5127.2690000000002
aF5127.2700000000004
aaa(lp340
(lp341
F4620.5959999999995
aF4662.9139999999998
aF4662.915
aF4662.9160000000002
aF4715.9939999999997
aF4823.4880000000003
aF4871.3879999999999
aF4942.1080000000002
aF5056.7849999999999
aa(lp342
F4621.5889999999999
aF4631.1459999999997
aF4652.8019999999997
aF4822.1700000000001
aF4921.6239999999998
aF4942.933
aa(lp343
F3339.556
aF4624.0519999999997
aF4654.9639999999999
aF4822.2460000000001
aF4924.7740000000003
aF4924.7749999999996
aF4941.9669999999996
aF5247.9920000000002
aa(lp344
F4609.1779999999999
aF4609.1790000000001
aF4609.1800000000003
aF4623.6440000000002
aF4691.6549999999997
aF4777.6719999999996
aF4935.277
aF4935.2780000000002
aF4935.2790000000005
aF4935.2799999999997
aa(lp345
F4603.7669999999998
aF4603.768
aF4603.7690000000002
aF4603.7700000000004
aF4623.3320000000003
aF4785.5479999999998
aF4806.3609999999999
aF4922.6350000000002
aF4932.54
aF4947.1030000000001
aa(lp346
F4582.7910000000002
aF4582.7920000000004
aF4582.7929999999997
aF4708.5060000000003
aF4892.9620000000004
aF4912.8249999999998
aF4916.491
aF4926.5510000000004
aF4941.1490000000003
aa(lp347
F4565.0320000000002
aF4570.8519999999999
aF4580.3180000000002
aF4698.6750000000002
aF4923.3149999999996
aF4923.3159999999998
aF4923.317
aF4923.3180000000002
aF4923.3190000000004
aF4923.3199999999997
aF4923.3209999999999
aF4923.3220000000001
aF4932.1610000000001
aF6509.7060000000001
aa(lp348
F4562.8670000000002
aF4562.8680000000004
aF4562.8689999999997
aF4575.8329999999996
aF4665.46
aF4665.4610000000002
aF4913.9290000000001
aF4920.8249999999998
aF5327.0360000000001
aa(lp349
F4557.5969999999998
aF4567.1350000000002
aF4580.6589999999997
aF4916.3890000000001
aF4927.0420000000004
aa(lp350
F4561.8990000000003
aF4571.9610000000002
aF4571.9620000000004
aF4571.9629999999997
aF4571.9639999999999
aF4613.3519999999999
aF4924.1390000000001
aF4929.6670000000004
aF4947.5569999999998
aa(lp351
F4576.1090000000004
aF4724.1779999999999
aF4923.4939999999997
aF4934.5609999999997
aF4934.5619999999999
aF4934.5630000000001
aF4950.3540000000003
aa(lp352
F4550.7299999999996
aF4579.5820000000003
aF4579.5829999999996
aF4579.5839999999998
aF4644.6670000000004
aF4924.3400000000001
aF4924.3410000000003
aF4924.3419999999996
aF4933.0249999999996
aF4933.0259999999998
aF4933.027
aF4933.0280000000002
aF4933.0290000000005
aF4933.0299999999997
aF4933.0309999999999
aF4948.049
aa(lp353
F4529.3819999999996
aF4552.2920000000004
aF4570.1220000000003
aF4636.4250000000002
aF4949.6459999999997
aF4957.6260000000002
aF4957.6270000000004
aF4957.6289999999999
aF4957.6300000000001
aF4968.473
aa(lp354
F4524.9380000000001
aF4545.808
aF4573.3950000000004
aF4768.415
aF4953.8140000000003
aF4957.2820000000002
aF4957.2830000000004
aF4957.2839999999997
aF4957.2849999999999
aF4957.2860000000001
aF4957.2870000000003
aF4957.2879999999996
aF4957.2889999999998
aF4957.29
aF4957.2910000000002
aF4957.2920000000004
aF4957.2929999999997
aF4978.6599999999999
aa(lp355
F4521.04
aF4557.1170000000002
aF4570.0349999999999
aF4613.9200000000001
aF4980.8969999999999
aF4980.8980000000001
aF4980.8990000000003
aF4987.835
aa(lp356
F4539.1599999999999
aF4570.732
aF4640.2640000000001
aF4640.2650000000003
aF4969.6819999999998
aF5003.3559999999998
aF5003.357
aF5003.3580000000002
aF5003.3590000000004
aF5003.3599999999997
aF5003.3609999999999
aF5008.7809999999999
aa(lp357
F4631.4880000000003
aF4703.0169999999998
aF4725.6559999999999
aF4866.7070000000003
aF4866.7079999999996
aF4866.7089999999998
aF4877.3900000000003
aF4903.4660000000003
aF4903.4669999999996
aF4903.4679999999998
aF5007.2389999999996
aF5020.0039999999999
aF5028.6400000000003
aF5056.0889999999999
aa(lp358
F4650.6679999999997
aF4650.6689999999999
aF4650.6700000000001
aF4717.1409999999996
aF4901.5990000000002
aF4901.6000000000004
aF4901.6009999999997
aF5035.4179999999997
aF5076.6620000000003
aa(lp359
F4648.0929999999998
aF4654.3829999999998
aF4701.0200000000004
aF4701.0209999999997
aF4701.0219999999999
aF4714.3159999999998
aF4901.0820000000003
aF4901.0829999999996
aF4927.4170000000004
aF5045.723
aF5061.7560000000003
aa(lp360
F4669.8680000000004
aF4703.098
aF4777.3940000000002
aF4932.2330000000002
aF4946.0389999999998
aF4970.8770000000004
aF5067.4520000000002
aF5074.3239999999996
aF5108.0799999999999
aa(lp361
F4669.4040000000005
aF4707.7479999999996
aF4755.2659999999996
aF4981.4290000000001
aF5007.1700000000001
aF5108.7799999999997
aF5152.7219999999998
aF5168.0770000000002
aF7618.8339999999998
aa(lp362
F4673.415
aF4679.7719999999999
aF4702.7129999999997
aF4712.9750000000004
aF4712.9759999999997
aF4712.9769999999999
aF4712.9780000000001
aF4712.9790000000003
aF5041.8590000000004
aF5041.8599999999997
aF5041.8609999999999
aF5102.8699999999999
aF5117.6390000000001
aF5117.6400000000003
aF5178.5500000000002
aF5178.5510000000004
aF5178.5519999999997
aF5178.5529999999999
aF5178.5540000000001
aF5178.5550000000003
aF5178.5559999999996
aF5178.5569999999998
aa(lp363
F4682.9110000000001
aF4715.8050000000003
aF4715.8059999999996
aF4715.8069999999998
aF4715.808
aF4715.8090000000002
aF4715.8100000000004
aF5058.0339999999997
aF5089.6890000000003
aF5162.5299999999997
aF5166.5420000000004
aF5179.8729999999996
aa(lp364
F4675.3580000000002
aF4713.5450000000001
aF5062.3739999999998
aF5062.375
aF5062.3760000000002
aF5105.2690000000002
aF5146.4219999999996
aF5154.0320000000002
aa(lp365
F4232.7650000000003
aF4263.4610000000002
aF4285.7110000000002
aF4494.2860000000001
aF4669.8180000000002
aF4718.7709999999997
aF5060.7809999999999
aF5090.6790000000001
aF5124.8810000000003
aF5148.7039999999997
aF5148.7049999999999
aaa(lp366
(lp367
F4663.5140000000001
aF4672.4859999999999
aF4718.7539999999999
aF4898.9849999999997
aF4976.9709999999995
aF4976.9719999999998
aF4976.973
aF4976.9740000000002
aF4976.9750000000004
aF4976.9759999999997
aF4976.9769999999999
aF4976.9780000000001
aF4976.9790000000003
aF4976.9799999999996
aF4976.9809999999998
aF4976.982
aF4976.9830000000002
aF4976.9840000000004
aF4976.9849999999997
aF4976.9859999999999
aF4976.9870000000001
aF4976.9880000000003
aF4976.9889999999996
aF4976.9899999999998
aa(lp368
F4672.2129999999997
aF4686.7150000000001
aF4946.9489999999996
aF4973.1390000000001
aa(lp369
F4664.8729999999996
aF4677.9040000000005
aF4742.3410000000003
aF4839.9780000000001
aF4946.9780000000001
aF4966.7399999999998
aa(lp370
F4675.4539999999997
aF4699.9409999999998
aF4699.942
aF4699.9430000000002
aF4835.3389999999999
aF4835.3400000000001
aF4956.8469999999998
aF4956.848
aF4956.8490000000002
aF4956.8500000000004
aF4956.8509999999997
aF4956.8519999999999
aF4956.8530000000001
aF4956.8540000000003
aF4956.8549999999996
aF4956.8559999999998
aF4956.857
aF4956.8580000000002
aF4965.6859999999997
aF5297.4530000000004
aa(lp371
F4645.1199999999999
aF4654.7190000000001
aF4809.6930000000002
aF4953.1559999999999
aF4967.7920000000004
aF5035.933
aa(lp372
F4604.335
aF4604.3360000000002
aF4609.9830000000002
aF4620.2259999999997
aF4781.3370000000004
aF4781.3379999999997
aF4911.4830000000002
aF4935.7690000000002
aF4965.3310000000001
aa(lp373
F4601.6040000000003
aF4617.0309999999999
aF4737.674
aF4954.3549999999996
aF4954.3559999999998
aF4954.357
aF4954.3580000000002
aF4954.3590000000004
aF4954.3599999999997
aF4954.3609999999999
aF4958.5020000000004
aF4958.5029999999997
aF4965.3810000000003
aF4965.3819999999996
aa(lp374
F4606.6869999999999
aF4606.6880000000001
aF4606.6890000000003
aF4700.8249999999998
aF4946.3000000000002
aF4949.8280000000004
aF4961.5739999999996
aF10094.825999999999
aa(lp375
F4593.1080000000002
aF4604.1270000000004
aF4695.7849999999999
aF4951.2489999999998
aF4951.25
aF4951.2510000000002
aF4951.2520000000004
aF4951.2529999999997
aF4951.2539999999999
aF4951.2550000000001
aF4951.2560000000003
aF4951.2569999999996
aF4958.1949999999997
aF4958.1959999999999
aF4958.1970000000001
aF4958.1980000000003
aF4966.5200000000004
aa(lp376
F4582.3419999999996
aF4582.3429999999998
aF4582.3440000000001
aF4590.2110000000002
aF4596.0810000000001
aF4641.2510000000002
aF4641.2520000000004
aF4953.46
aF4970.8980000000001
aF4970.8990000000003
aF4970.8999999999996
aF4970.9009999999998
aF4970.902
aF4970.9030000000002
aF4970.9040000000005
aF4970.9049999999997
aF4970.9059999999999
aF4970.9070000000002
aF4970.9080000000004
aF4970.9089999999997
aF4970.9099999999999
aF4970.9110000000001
aF4970.9120000000003
aF5078.3509999999997
aa(lp377
F4597.2820000000002
aF4597.2830000000004
aF4597.2839999999997
aF4667.5780000000004
aF4958.5349999999999
aF4962.4870000000001
aF4969.5709999999999
aF5006.7910000000002
aa(lp378
F4588.6099999999997
aF4593.4799999999996
aF4621.0889999999999
aF4964.6469999999999
aF4976.6800000000003
aF4976.6809999999996
aa(lp379
F4600.2479999999996
aF4600.2489999999998
aF4600.25
aF4667.2719999999999
aF4985.433
aF4993.1589999999997
aF4993.1599999999999
aF4993.1610000000001
aF4993.1620000000003
aF5036.6729999999998
aa(lp380
F4590.5050000000001
aF4598.6329999999998
aF4598.634
aF4598.6350000000002
aF4842.2610000000004
aF4985.0479999999998
aF4985.049
aF4985.0500000000002
aF4985.0510000000004
aF4985.0519999999997
aF4985.0529999999999
aF4985.0540000000001
aF4985.0550000000003
aF4988.7969999999996
aF5036.6899999999996
aa(lp381
F4579.6859999999997
aF4586.4359999999997
aF4599.0619999999999
aF4599.0630000000001
aF4599.0640000000003
aF4831.7060000000001
aF4831.7070000000003
aF4831.7079999999996
aF5000.3469999999998
aF5017.6689999999999
aF5017.6700000000001
aF5017.6710000000003
aF5017.6719999999996
aF5017.6729999999998
aF5017.674
aF5017.6750000000002
aF5017.6760000000004
aF5017.6769999999997
aF5025.8689999999997
aa(lp382
F4579.0950000000003
aF4591.3310000000001
aF4648.8620000000001
aF4791.9669999999996
aF4980.6099999999997
aF5017.0110000000004
aF5017.0119999999997
aF5024.5799999999999
aF5039.4290000000001
aa(lp383
F4659.5829999999996
aF4659.5839999999998
aF4724.4709999999995
aF4731.0299999999997
aF4735.5060000000003
aF4923.4690000000001
aF4935.5870000000004
aF5036.1310000000003
aF5048.317
aF5048.3180000000002
aF5048.3190000000004
aF5048.3199999999997
aF5048.3209999999999
aF5048.3220000000001
aF5056.6840000000002
aa(lp384
F4651.2929999999997
aF4665.6940000000004
aF4735.3639999999996
aF4735.3649999999998
aF4735.366
aF4735.3670000000002
aF4735.3680000000004
aF4735.3689999999997
aF4735.3699999999999
aF4735.3710000000001
aF4735.3720000000003
aF4735.3729999999996
aF4735.3739999999998
aF4796.0550000000003
aF4933.6710000000003
aF4946.9409999999998
aF4982.1329999999998
aF5029.875
aF5056.0699999999997
aF5065.2650000000003
aF5065.2659999999996
aF5808.9189999999999
aa(lp385
F4673.1880000000001
aF4724.1589999999997
aF4971.4660000000003
aF4971.4669999999996
aF5080.3130000000001
aF5096.1890000000003
aF5096.1899999999996
aF5096.1909999999998
aa(lp386
F4672.6989999999996
aF4684.8360000000002
aF4737.0720000000001
aF4992.6379999999999
aF5004.8450000000003
aF5103.1540000000005
aF5122.1090000000004
aa(lp387
F4686.6779999999999
aF4717.2259999999997
aF4724.7920000000004
aF5028.9219999999996
aF5050.799
aF5050.8000000000002
aF5050.8010000000004
aF5172.7049999999999
aF5187.5460000000003
aa(lp388
F4687.2520000000004
aF4696.4309999999996
aF4730.8670000000002
aF4774.9660000000003
aF5082.9799999999996
aF5196.6760000000004
aF5196.6769999999997
aa(lp389
F4694.3159999999998
aF5094.7209999999995
aF5128.5659999999998
aF5164.5079999999998
aF5181.134
aF5199.0479999999998
aF5204.5259999999998
aa(lp390
F4698.7380000000003
aF4725.3869999999997
aF5092.277
aF5125.6559999999999
aF5149.2269999999999
aF5168.1940000000004
aF5848.4700000000003
aa(lp391
F4688.2870000000003
aF4731.8190000000004
aF5112.7200000000003
aF5112.7209999999995
aF5112.7219999999998
aF5144.0699999999997
aF5169.5870000000004
aF5169.5879999999997
aF5169.5889999999999
aF5169.5900000000001
aaa(lp392
(lp393
F4709.942
aF4724.0879999999997
aF4724.0889999999999
aF4724.0900000000001
aF4781.1940000000004
aF4781.1949999999997
aF4906.3370000000004
aF4988.9549999999999
aF5007.4049999999997
aF5007.4059999999999
aa(lp394
F4714.2780000000002
aF4722.5699999999997
aF4795.7089999999998
aF4795.71
aF4897.482
aF4985.1009999999997
aF4999.2160000000003
aF5837.4009999999998
aa(lp395
F4710.8400000000001
aF4726.9960000000001
aF4831.0379999999996
aF4882.2160000000003
aF4995.6729999999998
aF5156.2629999999999
aa(lp396
F4689.1800000000003
aF4689.1809999999996
aF4689.1819999999998
aF4708.75
aF4986.9459999999999
aF4995.1899999999996
aa(lp397
F4660.6769999999997
aF4674.424
aF4685.0810000000001
aF4840.8860000000004
aF4986.9989999999998
aF4995.3829999999998
aF5187.8280000000004
aa(lp398
F4637.9660000000003
aF4657.0219999999999
aF4801.6040000000003
aF4923.9589999999998
aF4948.5950000000003
aF4998.8919999999998
aF4998.893
aF4998.8940000000002
aF4998.8950000000004
aF5057.3100000000004
aa(lp399
F4628.1509999999998
aF4641.0479999999998
aF4660.8950000000004
aF4660.8959999999997
aF4816.7790000000005
aF4983.6319999999996
aF4987.0230000000001
aF4993.299
aF5017.2380000000003
aa(lp400
F4624.5649999999996
aF4630.8119999999999
aF4651.0720000000001
aF4651.0730000000003
aF4651.0739999999996
aF4852.1580000000004
aF4977.2629999999999
aF4983.1729999999998
aF4983.174
aF4995.9709999999995
aa(lp401
F4612.3289999999997
aF4636.4570000000003
aF4656.5709999999999
aF4656.5720000000001
aF4656.5730000000003
aF4987.509
aF4997.2420000000002
aa(lp402
F4612.2110000000002
aF4612.2120000000004
aF4612.2129999999997
aF4621.6409999999996
aF4638.9669999999996
aF4638.9679999999998
aF4986.7280000000001
aF4999.8649999999998
aF5016.3860000000004
aa(lp403
F4610.5810000000001
aF4610.5820000000003
aF4620.7120000000004
aF4647.4620000000004
aF4647.4629999999997
aF4992.4279999999999
aF4992.4290000000001
aF4992.4300000000003
aF4992.4309999999996
aF4992.4319999999998
aF4992.433
aF4992.4340000000002
aF4992.4350000000004
aF4996.1239999999998
aF5017.3540000000003
aa(lp404
F4608.0330000000004
aF4617.6440000000002
aF4617.6450000000004
aF4635.79
aF4991.3549999999996
aF4994.973
aF4994.9740000000002
aF4994.9750000000004
aF5011.6800000000003
aa(lp405
F4606.482
aF4606.4830000000002
aF4606.4840000000004
aF4615.4459999999999
aF4633.5659999999998
aF4633.567
aF5021.7719999999999
aF5036.4539999999997
aa(lp406
F4611.9449999999997
aF4619.4219999999996
aF4885.348
aF4885.3490000000002
aF5007.2309999999998
aF5013.1769999999997
aF5022.518
aF5176.5659999999998
aa(lp407
F4613.6909999999998
aF4613.692
aF4613.6930000000002
aF4613.6940000000004
aF4615.9700000000003
aF5029.4650000000001
aF5029.4660000000003
aF5034.4769999999999
aF5034.4780000000001
aF5034.4790000000003
aF5345.732
aa(lp408
F4656.8909999999996
aF4671.3530000000001
aF5026.0190000000002
aF5039.5969999999998
aF5048.7550000000001
aF5056.6589999999997
aF5248.3530000000001
aa(lp409
F4668.777
aF4675.6149999999998
aF4793.6949999999997
aF4806.8239999999996
aF4825.6149999999998
aF4960.7969999999996
aF4960.7979999999998
aF4973.5640000000003
aF5057.9790000000003
aF5068.1210000000001
aF5074.576
aF5086.0429999999997
aa(lp410
F4680.3500000000004
aF4762.3689999999997
aF4762.3699999999999
aF4762.3710000000001
aF4762.3720000000003
aF4762.3729999999996
aF4762.3739999999998
aF4985.277
aF4985.2780000000002
aF4985.2790000000005
aF4996.8549999999996
aF4996.8559999999998
aF5080.8019999999997
aF5085.7359999999999
aF5105.0290000000005
aa(lp411
F4682.0129999999999
aF4690.5699999999997
aF4739.1450000000004
aF4739.1459999999997
aF4744.3209999999999
aF4744.3220000000001
aF4744.3230000000003
aF4775.4319999999998
aF5017.799
aF5112.0060000000003
aF5112.0069999999996
aF5112.0079999999998
aF5112.009
aF5130.1450000000004
aF5130.1459999999997
aa(lp412
F4691.3010000000004
aF4741.6779999999999
aF4741.6790000000001
aF4741.6800000000003
aF4741.6809999999996
aF4741.6819999999998
aF4741.683
aF4741.6840000000002
aF4957.4740000000002
aF5030.1589999999997
aF5054.3630000000003
aF5122.2139999999999
aF5136.5889999999999
aF5145.2820000000002
aa(lp413
F4699.6670000000004
aF4745.1949999999997
aF5077.1360000000004
aF5092.9589999999998
aF5189.0020000000004
aF5192.9399999999996
aF5857.7529999999997
aa(lp414
F4698.616
aF4704.7979999999998
aF4732.8739999999998
aF4736.0069999999996
aF5110.3850000000002
aF5121.7129999999997
aF5138.4380000000001
aF5163.5699999999997
aF5163.5709999999999
aF5163.5720000000001
aF5184.9059999999999
aF5214.3339999999998
aF5214.335
aF5214.3360000000002
aa(lp415
F4705.4809999999998
aF4744.2879999999996
aF4744.2889999999998
aF4744.29
aF4744.2910000000002
aF4744.2920000000004
aF5126.8000000000002
aF5126.8010000000004
aF5126.8019999999997
aF5166.5410000000002
aF5173.4189999999999
aF5198.9809999999998
aF5198.982
aF5209.7780000000002
aa(lp416
F4709.4269999999997
aF4734.1760000000004
aF4734.1769999999997
aF5124.1599999999999
aF5124.1620000000003
aF5143.2700000000004
aF5168.7510000000002
aF5185.4539999999997
aF5805.491
aa(lp417
F4694.4229999999998
aF4740.8580000000002
aF5133.5810000000001
aF5133.5820000000003
aF5133.5829999999996
aF5161.2910000000002
aF5181.0950000000003
aF5375.9690000000001
aaa(lp418
(lp419
F4758.3760000000002
aF4786.8559999999998
aF4958.8800000000001
aF5026.0119999999997
aF5076.9979999999996
aa(lp420
F4776.5069999999996
aF4776.5079999999998
aF4776.509
aF4928.1999999999998
aF5016.7309999999998
aF5025.1270000000004
aF5025.1279999999997
aa(lp421
F4756.4700000000003
aF4766.2060000000001
aF4814.2780000000002
aF4914.6390000000001
aF4914.6400000000003
aF5019.7349999999997
aF5036.8980000000001
aa(lp422
F4733.107
aF4754.0379999999996
aF4754.0389999999998
aF4754.04
aF4785.1559999999999
aF4908.9340000000002
aF5024.2799999999997
aF5077.0500000000002
aa(lp423
F4697.5860000000002
aF4714.2359999999999
aF4725.098
aF4737.0330000000004
aF4868.1080000000002
aF5018.1049999999996
aF5027.6019999999999
aF5316.3959999999997
aa(lp424
F4676.3530000000001
aF4689.7460000000001
aF4705.3819999999996
aF4705.3829999999998
aF4858.7520000000004
aF4945.1559999999999
aF4981.0780000000004
aF5014.7399999999998
aF5024.232
aF5077.8270000000002
aa(lp425
F4664.9290000000001
aF4678.9650000000001
aF4688.3670000000002
aF4827.857
aF5014.2089999999998
aF5017.826
aF5022.2439999999997
aF5036.2790000000005
aa(lp426
F4660.5649999999996
aF4671.2089999999998
aF4694.0919999999996
aF5008.473
aF5014.893
aF5014.8940000000002
aF5014.8950000000004
aF5014.8959999999997
aF5018.3159999999998
aa(lp427
F4651.1469999999999
aF4660.2690000000002
aF4681.3050000000003
aF5011.8140000000003
aF5016.6199999999999
aF5016.6210000000001
aF5016.6220000000003
aF5016.6229999999996
aF5016.6239999999998
aF5044.6499999999996
aa(lp428
F4651.7489999999998
aF4662.7439999999997
aF4750.6360000000004
aF5015.6940000000004
aF5018.4390000000003
aF5018.4399999999996
aF5018.4409999999998
aF5018.442
aF5018.4430000000002
aF5018.4440000000004
aF5018.4449999999997
aF5018.4459999999999
aF5018.4470000000001
aF5018.4480000000003
aF5018.4489999999996
aF5018.4499999999998
aF5018.451
aF5018.4520000000002
aF5027.6300000000001
aa(lp429
F4641.5079999999998
aF4641.509
aF4641.5100000000002
aF4655.8800000000001
aF4670.4620000000004
aF4670.4629999999997
aF4670.4639999999999
aF5024.3829999999998
aF5037.6840000000002
aa(lp430
F4635.7129999999997
aF4635.7139999999999
aF4635.7150000000001
aF4640.1099999999997
aF4651.9970000000003
aF4866.6080000000002
aF4866.6090000000004
aF5017.5940000000001
aF5023.1629999999996
aF5027.6930000000002
aa(lp431
F4627.857
aF4633.9799999999996
aF4645.1130000000003
aF5033.5079999999998
aF5033.509
aF5033.5100000000002
aF5033.5110000000004
aF5033.5119999999997
aF5033.5129999999999
aF5046.7960000000003
aa(lp432
F4626.7129999999997
aF4637.1440000000002
aF4637.1450000000004
aF4637.1459999999997
aF5036.4669999999996
aF5047.6130000000003
aa(lp433
F4630.0929999999998
aF4684.6890000000003
aF4684.6899999999996
aF5057.8469999999998
aF5057.848
aF5057.8490000000002
aF5085.5110000000004
aa(lp434
F4695.8999999999996
aF5050.3270000000002
aF5072.6930000000002
aa(lp435
F4696.5010000000002
aF4802.4660000000003
aF4954.7389999999996
aF4995.5699999999997
aF5076.7420000000002
aF6218.7820000000002
aa(lp436
F4700.0200000000004
aF4785.8050000000003
aF5014.2070000000003
aF5038.6440000000002
aF5038.6450000000004
aF5085.4589999999998
aF5119.866
aa(lp437
F3314.8240000000001
aF4714.2870000000003
aF4793.5929999999998
aF5043.0969999999998
aF5112.4070000000002
aF5316.6580000000004
aa(lp438
F2574.0129999999999
aF4711.0789999999997
aF4763.3140000000003
aa(lp439
F4714.5879999999997
aF4763.6580000000004
aF4763.6589999999997
aF4763.6599999999999
aF5112.7910000000002
aF5209.8909999999996
aa(lp440
F4716.6319999999996
aF4750.4350000000004
aF5164.2470000000003
aF5164.2479999999996
aF5208.9780000000001
aF5424.6760000000004
aa(lp441
F4718.6509999999998
aF4760.9300000000003
aF4760.9309999999996
aF5145.2539999999999
aF5224.3530000000001
aF5224.3540000000003
aF5506.6170000000002
aa(lp442
F4717.1329999999998
aF4754.5140000000001
aF4754.5150000000003
aF4754.5159999999996
aF4754.5169999999998
aF4754.518
aF4754.5190000000002
aF4754.5200000000004
aF5145.3670000000002
aF5166.2439999999997
aF5187.5730000000003
aF5187.5739999999996
aF5187.5749999999998
aF5212.1869999999999
aF5212.1880000000001
aF5212.1890000000003
aa(lp443
F4716.2619999999997
aF4764.451
aF5157.8289999999997
aF5197.3969999999999
aaa(lp444
(lp445
F4796.085
aF4901.9889999999996
aF4958.4620000000004
aF5056.5959999999995
aF5249.25
aa(lp446
F4812.8140000000003
aF4983.1239999999998
aF5054.076
aF5744.7129999999997
aa(lp447
F4794.5339999999997
aF4822.1909999999998
aF4947.8159999999998
aF5044.6549999999997
aF5055.4430000000002
aa(lp448
F4780.7610000000004
aF5046.4690000000001
aF5057.0169999999998
aa(lp449
F4754.8599999999997
aF4771.2330000000002
aF4790.7030000000004
aF4904.2330000000002
aF4944.259
aF5048.3869999999997
aF5055.2950000000001
aa(lp450
F4725.1130000000003
aF4873.2219999999998
aF4973.1729999999998
aF5049.4809999999998
aF5056.625
aa(lp451
F4712.3670000000002
aF4753.5010000000002
aF5052.1559999999999
aF5052.1570000000002
aF5052.1580000000004
aa(lp452
F4072.8110000000001
aF4699.8630000000003
aF4699.8639999999996
aF4835.2330000000002
aF5046.6670000000004
aF5046.6679999999997
aF5046.6689999999999
aF5046.6700000000001
aF5046.6710000000003
aF5046.6719999999996
aF5046.6729999999998
aF5062.8050000000003
aa(lp453
F4691.1679999999997
aF4712.701
aF5041.7740000000003
aF5049.0900000000001
aF5049.0910000000003
aF5049.0919999999996
aF8433.9930000000004
aa(lp454
F4681.2179999999998
aF4712.0190000000002
aF5047.4750000000004
aF5047.4759999999997
aF5047.4769999999999
aF5047.4780000000001
aF5047.4790000000003
aF5047.4799999999996
aF5047.4809999999998
aa(lp455
F4677.3289999999997
aF4698.8280000000004
aF5044.9549999999999
aF5049.6899999999996
aa(lp456
F4666.9300000000003
aF4697.3459999999995
aF4697.3469999999998
aF4697.348
aF5041.8770000000004
aF5046.826
aa(lp457
F4662.2719999999999
aF4856.1300000000001
aF4856.1310000000003
aF5054.067
aF5073.0010000000002
aa(lp458
F4659.3819999999996
aF4881.3519999999999
aF5056.9059999999999
aF5068.4480000000003
aF5068.4489999999996
aF5068.4499999999998
aa(lp459
F2386.3980000000001
aF4651.4740000000002
aF4694.0649999999996
aF5075.9939999999997
aF5745.491
aa(lp460
F4711.4340000000002
aF4749.9970000000003
aF5061.8909999999996
aF5061.8919999999998
aF5092.4250000000002
aF5092.4260000000004
aF5092.4269999999997
aa(lp461
F4792.5680000000002
aF4977.5110000000004
aF5757.6769999999997
aa(lp462
F5058.29
aF5107.5039999999999
aa(lp463
F100000
aa(lp464
F3215.9189999999999
aF4774.0330000000004
aF4871.4709999999995
aa(lp465
F4733.8360000000002
aF4781.2950000000001
aF5148.0649999999996
aF5220.8530000000001
aa(lp466
F4735.6570000000002
aF4774.6310000000003
aF5188.3819999999996
aF5228.5789999999997
aa(lp467
F4775.2939999999999
aF4775.2950000000001
aF4775.2960000000003
aF5164.3789999999999
aF5197.3729999999996
aF5214.4250000000002
aF5214.4260000000004
aF5214.4269999999997
aF5245.683
aF5245.6840000000002
aF5245.6850000000004
aF5245.6859999999997
aa(lp468
F4735.8509999999997
aF4763.2299999999996
aF4763.2309999999998
aF5184.5950000000003
aF5224.4200000000001
aF5230.8760000000002
aa(lp469
F4719.0010000000002
aF4766.9970000000003
aF5178.3469999999998
aF5217.8999999999996
aF5217.9009999999998
aF5217.902
aaa(lp470
(lp471
F4847.9340000000002
aF4873.3950000000004
aF5017.3270000000002
aF5096.2020000000002
aa(lp472
F4862.5540000000001
aF4862.5550000000003
aF4862.5559999999996
aF4918.5169999999998
aF4981.5919999999996
aF5016.7389999999996
aF5094.3019999999997
aa(lp473
F4838.5529999999999
aF4859.4210000000003
aF4983.4120000000003
aF5091.3140000000003
aF5171.4799999999996
aa(lp474
F4825.0990000000002
aF4839.2870000000003
aF4966.0450000000001
aF5090.9700000000003
aF5090.9709999999995
aF5090.9719999999998
aF5090.973
aF5090.9740000000002
aF5119.3990000000003
aa(lp475
F4820.8680000000004
aF4884.0410000000002
aF4884.0420000000004
aF4884.0429999999997
aF4952.652
aF5090.826
aF5412.9650000000001
aa(lp476
F4773.7650000000003
aF4773.7659999999996
aF4787.7139999999999
aF4787.7150000000001
aF4787.7160000000003
aF4787.7169999999996
aF4914.9369999999999
aF4914.9380000000001
aF4977.7110000000002
aF5084.4960000000001
aF5096.3180000000002
aF9752.2489999999998
aa(lp477
F4763.1850000000004
aF4786.2380000000003
aF4912.4539999999997
aF5079.3670000000002
aF5079.3680000000004
aF5083.8000000000002
aF5083.8010000000004
aF5083.8019999999997
aF5124.884
aa(lp478
F4763.9430000000002
aF4763.9440000000004
aF4885.567
aF4885.5680000000002
aF5084.29
aF5084.2910000000002
aF5084.2920000000004
aF5084.2929999999997
aa(lp479
F4737.8230000000003
aF4747.625
aF4878.0129999999999
aF4878.0140000000001
aF5074.875
aF5074.8760000000002
aF5074.8770000000004
aF5074.8779999999997
aF5074.8789999999999
aF5074.8800000000001
aF5074.8810000000003
aF5074.8819999999996
aF5074.8829999999998
aF5074.884
aF5074.8850000000002
aF5074.8860000000004
aF5074.8869999999997
aF5074.8879999999999
aF5074.8890000000001
aF5088.1390000000001
aF5088.1400000000003
aa(lp480
F4723.3950000000004
aF4730.893
aF4786.6260000000002
aF4786.6270000000004
aF4786.6279999999997
aF5076.1120000000001
aF5076.1130000000003
aF5076.1139999999996
aF5076.1149999999998
aF5076.116
aF5076.1170000000002
aF5076.1180000000004
aF5076.1189999999997
aF5076.1199999999999
aF5078.1310000000003
aF5085.2209999999995
aa(lp481
F4718.1189999999997
aF4718.1199999999999
aF4718.1210000000001
aF4736.7330000000002
aF5073.9359999999997
aF5073.9369999999999
aF5073.9380000000001
aF5073.9390000000003
aF5082.9610000000002
aa(lp482
F4701.3360000000002
aF4701.3370000000004
aF4701.3379999999997
aF4719.0439999999999
aF4898.3040000000001
aF5067.4449999999997
aF5071.3419999999996
aF5071.3429999999998
aF5071.3440000000001
aF5076.7049999999999
aa(lp483
F4690.973
aF4702.7139999999999
aF4771.5929999999998
aF5093.0550000000003
aF5093.0559999999996
aF5093.0569999999998
aF5093.058
aF5093.0590000000002
aF5093.0600000000004
aF5093.0609999999997
aF5093.0619999999999
aF5093.0630000000001
aF5093.0640000000003
aF5093.0649999999996
aF5383.5550000000003
aa(lp484
F3790.3739999999998
aF4705.5810000000001
aF4927.7290000000003
aF5085.3289999999997
aF5187.942
aa(lp485
F4675.4229999999998
aF4682.9059999999999
aF4682.9070000000002
aF4682.9080000000004
aF4715.2879999999996
aF5098.4480000000003
aF5098.4489999999996
aF5098.4499999999998
aF5098.451
aF5098.4520000000002
aF5098.4530000000004
aF5125.4949999999999
aa(lp486
F4731.0370000000003
aF4746.5709999999999
aF4746.5720000000001
aF4746.5730000000003
aF4746.5739999999996
aF4839.866
aF5084.9099999999999
aF5105.8800000000001
aF5127.2150000000001
aF5480.4679999999998
aa(lp487
F4742.585
aF4817.6809999999996
aF4955.442
aF4991.5680000000002
aF5049.8959999999997
aF5049.8969999999999
aF5049.8980000000001
aF5141.3329999999996
aF5155.7879999999996
aa(lp488
F4744.5429999999997
aF4842.0870000000004
aF4865.6909999999998
aF5065.5569999999998
aF5074.8469999999998
aF5160.1220000000003
aF5160.1229999999996
aF5160.1239999999998
aF5160.125
aF5183.5959999999995
aF9590.7749999999996
aa(lp489
F4740.7219999999998
aF4751.308
aF4751.3090000000002
aF4836.4790000000003
aF5104.2359999999999
aF5184.2060000000001
aF5203.3639999999996
aa(lp490
F3215.1509999999998
aF4744.817
aF4830.2659999999996
aF5135.3540000000003
aF5211.4080000000004
aF8565.8099999999995
aa(lp491
F4746.3010000000004
aF4801.9639999999999
aF4801.9650000000001
aF4801.9660000000003
aF4801.9669999999996
aF4801.9679999999998
aF4801.9690000000001
aF5166.7039999999997
aF5229.5749999999998
aa(lp492
F4745.2799999999997
aF4750.5500000000002
aF4791.2569999999996
aF5180.8990000000003
aF5248.0709999999999
aa(lp493
F4749.5330000000004
aF4782.4089999999997
aF5183.2640000000001
aF5220.1549999999997
aF5231.8559999999998
aF5262.3810000000003
aa(lp494
F4747.1049999999996
aF4777.8029999999999
aF5189.4200000000001
aF5189.4210000000003
aF5244.107
aF5266.9179999999997
aa(lp495
F4737.607
aF4795.8980000000001
aF5185.8639999999996
aF5194.701
aF5211.768
aF5230.893
aaa(lp496
(lp497
F4872.5649999999996
aF4872.5659999999998
aF4880.9650000000001
aF4907.6620000000003
aF5047.1880000000001
aF5120.7430000000004
aF5130.54
aF5146.7349999999997
aa(lp498
F4886.3580000000002
aF4916.1329999999998
aF5025.7659999999996
aF5121.8909999999996
aF5143.2640000000001
aa(lp499
F4876.8990000000003
aF4893.4409999999998
aF5013.6099999999997
aF5013.6109999999999
aF5116.7280000000001
aF5131.8180000000002
aa(lp500
F4871.3400000000001
aF4871.3410000000003
aF4871.3419999999996
aF4885.5249999999996
aF5077.0600000000004
aF5127.5510000000004
aF5183.7399999999998
aa(lp501
F4861.8860000000004
aF4889.3040000000001
aF4985.6549999999997
aF5123.4380000000001
aF5280.5860000000002
aa(lp502
F4840.2749999999996
aF4850.5039999999999
aF4850.5050000000001
aF4850.5060000000003
aF4944.1210000000001
aF5114.7420000000002
aF5114.7430000000004
aF5143.3900000000003
aa(lp503
F4816.1099999999997
aF4816.1109999999999
aF4826.3289999999997
aF4826.3299999999999
aF4931.5460000000003
aF5108.732
aF5114.3540000000003
aa(lp504
F4810.2399999999998
aF4810.241
aF4810.2420000000002
aF4827.3199999999997
aF5100.4979999999996
aF5117.8429999999998
aF5117.8440000000001
aa(lp505
F4796.7219999999998
aF4809.1540000000005
aF4906.8389999999999
aF5112.6059999999998
aF5112.607
aF5112.6080000000002
aF5112.6090000000004
aF5112.6099999999997
aF5112.6109999999999
aF5112.6120000000001
aF5112.6130000000003
aF5112.6139999999996
aF5112.6149999999998
aF5112.616
aF5112.6170000000002
aF5112.6180000000004
aF5112.6189999999997
aF5112.6199999999999
aF5112.6210000000001
aF5112.6220000000003
aF5112.6229999999996
aF5112.6239999999998
aF5112.625
aF5112.6260000000002
aF5112.6270000000004
aF5121.8940000000002
aa(lp506
F4774.9790000000003
aF4788.5
aF4815.3890000000001
aF5097.5799999999999
aF5111.9520000000002
aa(lp507
F4755.433
aF4777.75
aF4873.4920000000002
aF5089.0330000000004
aF5089.0339999999997
aF5089.0349999999999
aF5097.9650000000001
aF5097.9660000000003
aa(lp508
F4777.2839999999997
aF4903.5959999999995
aF4903.5969999999998
aF5088.134
aF5091.7420000000002
aF5091.7430000000004
aF5097.9870000000001
aF5097.9880000000003
aF5097.9889999999996
aF5097.9899999999998
aF5097.991
aF5097.9920000000002
aa(lp509
F4735.3050000000003
aF4745.4139999999998
aF5095.1790000000001
aF5106.7460000000001
aa(lp510
F4715.8339999999998
aF4726.6099999999997
aF4726.6109999999999
aF4726.6120000000001
aF4770.5559999999996
aF4770.5569999999998
aF5103.9480000000003
aF5103.9489999999996
aF5103.9499999999998
aF5103.951
aF5103.9520000000002
aF5103.9530000000004
aF5103.9539999999997
aF5103.9549999999999
aF5103.9560000000001
aF5103.9570000000003
aF5103.9579999999996
aF5103.9589999999998
aF5175.6180000000004
aa(lp511
F4708.8029999999999
aF4721.6710000000003
aF5002.3360000000002
aF5110.4070000000002
aF5117.2460000000001
aF5124.7719999999999
aa(lp512
F4770.9170000000004
aF4770.9179999999997
aF4770.9189999999999
aF4784.3620000000001
aF5102.0309999999999
aF5136.0770000000002
aF5136.0780000000004
aF5136.0789999999997
aF5156.1689999999999
aa(lp513
F4770.7200000000003
aF4832.3609999999999
aF4990.2939999999999
aF5023.4229999999998
aF5068.5320000000002
aF5168.5780000000004
aa(lp514
F4768.9309999999996
aF4882.2719999999999
aF5095.7719999999999
aF5177.7359999999999
aF5192.4539999999997
aa(lp515
F5135.2950000000001
aF5178.277
aF5669.2910000000002
aa(lp516
F4773.8540000000003
aF4773.8549999999996
aF4837.192
aF5183.5169999999998
aF5213.0479999999998
aF5293.6809999999996
aa(lp517
F4774.4780000000001
aF4826.7460000000001
aF4826.7470000000003
aF4826.7479999999996
aF4826.7489999999998
aF4826.75
aF4826.7510000000002
aF4826.7520000000004
aF4826.7529999999997
aF4826.7539999999999
aF4903.4219999999996
aF5182.3310000000001
aF5192.4979999999996
aF5233.0190000000002
aF5233.0200000000004
aF5233.0209999999997
aF5233.0219999999999
aF5244.4340000000002
aa(lp518
F4762.6499999999996
aF4769.4489999999996
aF4805.4970000000003
aF4812.366
aF5207.8310000000001
aF5261.0450000000001
aF5261.0460000000003
aa(lp519
F4764.701
aF4802.7389999999996
aF4802.7399999999998
aF5199.0469999999996
aF5229.2529999999997
aF5229.2539999999999
aF5258.2830000000004
aF5274.9040000000005
aa(lp520
F4762.4790000000003
aF4794.6509999999998
aF4794.652
aF5204.8379999999997
aF5233.201
aF5233.2020000000002
aF5233.2030000000004
aF5244.6639999999998
aF5266.3559999999998
aF5383.1440000000002
aa(lp521
F4744.6099999999997
aF4798.1149999999998
aF5209.2579999999998
aF5228.6379999999999
aF5246.723
aaa(lp522
(lp523
F4928.1369999999997
aF4952.8940000000002
aF5050.4229999999998
aF5113.5519999999997
aF5167.7359999999999
aF5224.3149999999996
aa(lp524
F4914.2790000000005
aF4914.2799999999997
aF4914.2809999999999
aF4931.2370000000001
aF5086.0290000000005
aF5161.4080000000004
aF5188.9309999999996
aa(lp525
F4911.79
aF4931.817
aF5072.6769999999997
aF5161.2889999999998
aF5161.29
aF5183.5600000000004
aa(lp526
F4899.8339999999998
aF4910.1610000000001
aF4943.5429999999997
aF5026.1009999999997
aF5163.0569999999998
aF5183.1700000000001
aa(lp527
F4895.8459999999995
aF4921.7479999999996
aF5004.6379999999999
aF5155.3050000000003
aF5180.7079999999996
aa(lp528
F4879.085
aF4885.5690000000004
aF4893.3670000000002
aF5143.5010000000002
aF5148.9930000000004
aF5148.9939999999997
aF5148.9949999999999
aF5158.433
aF5255.2700000000004
aa(lp529
F4877.732
aF4962.6440000000002
aF4962.6450000000004
aF5140.3450000000003
aF5140.3459999999995
aF5140.3469999999998
aF5140.348
aF5140.3490000000002
aF5140.3500000000004
aF5140.3509999999997
aF5140.3519999999999
aF5140.3530000000001
aF5140.3540000000003
aF5164.9170000000004
aa(lp530
F4854.1850000000004
aF4867.4300000000003
aF4950.2820000000002
aF5135.759
aF5135.7600000000002
aF5135.7610000000004
aF5135.7619999999997
aF5135.7629999999999
aF5135.7640000000001
aF5135.7650000000003
aF5135.7659999999996
aF5135.7669999999998
aF5135.768
aF5135.7690000000002
aF5135.7700000000004
aF5139.0569999999998
aF5139.058
aF5139.0590000000002
aa(lp531
F4849.7420000000002
aF4872.3670000000002
aF4938.3879999999999
aF5119.2510000000002
aF5125.7790000000005
aF5148.5290000000005
aa(lp532
F4838.5200000000004
aF4852.8149999999996
aF4883.3299999999999
aF5118.0450000000001
aF5130.9250000000002
aF5130.9260000000004
aF5130.9269999999997
aF5130.9279999999999
aF5130.9290000000001
aF5130.9300000000003
aF5130.9309999999996
aF5130.9319999999998
aF5130.933
aF5130.9340000000002
aF5130.9350000000004
aa(lp533
F4824.7969999999996
aF4841.9700000000003
aF4868.1670000000004
aF4868.1679999999997
aF4868.1689999999999
aF5114.6949999999997
aF5114.6959999999999
aF5114.6970000000001
aF5114.6980000000003
aF5114.6989999999996
aF5135.4530000000004
aF9258.25
aa(lp534
F4826.9809999999998
aF4872.3909999999996
aF5116.683
aF5116.6840000000002
aF5116.6859999999997
aF5116.6869999999999
aF5116.6880000000001
aF5116.6890000000003
aF5116.6899999999996
aF5131.6090000000004
aa(lp535
F4800.4949999999999
aF4814.5209999999997
aF5127.4930000000004
aF5127.4939999999997
aF5127.4949999999999
aF5127.4960000000001
aF5127.4970000000003
aF5127.4979999999996
aF5127.4989999999998
aa(lp536
F4774.2939999999999
aF4794.9809999999998
aF4887.3249999999998
aF5125.5640000000003
aF5134.5309999999999
aF5134.5330000000004
aa(lp537
F4766.8130000000001
aF4793.4530000000004
aF5143.473
aF5175.4409999999998
aa(lp538
F4779.1400000000003
aF4795.0010000000002
aF4795.0020000000004
aF4814.3180000000002
aF5123.8389999999999
aF5152.3689999999997
aF5168.4719999999998
aF5186.018
aF5190.0259999999998
aa(lp539
F4794.1080000000002
aF4801.8980000000001
aF4835.6589999999997
aF4915.058
aF5014.1099999999997
aF5036.1109999999999
aF5051.6710000000003
aF5088.1719999999996
aF5104.826
aF5104.8270000000002
aF5180.6350000000002
aF5194.6940000000004
aa(lp540
F4795.7150000000001
aF4914.9300000000003
aF4930.9589999999998
aF5114.183
aF5120.9030000000002
aF5197.201
aF5208.4470000000001
aa(lp541
F100000
aa(lp542
F4795.9440000000004
aF4876.1530000000002
aF4876.1540000000005
aF5196.4520000000002
aF5241.1580000000004
aF5241.1589999999997
aF5241.1599999999999
aa(lp543
F4792.5820000000003
aF4855.482
aF4855.4830000000002
aF4855.4840000000004
aF5207.9499999999998
aF5253.7740000000003
aF5253.7749999999996
aF5253.7759999999998
aF8089.0429999999997
aa(lp544
F4781.0410000000002
aF4817.8819999999996
aF4830.308
aF4842.4579999999996
aF4842.4589999999998
aF4842.46
aF5227.625
aF5272.2309999999998
aF5272.232
aa(lp545
F4775.5690000000004
aF4783.9520000000002
aF4830.4660000000003
aF4830.4669999999996
aF4830.4679999999998
aF4830.4690000000001
aF4830.4700000000003
aF4830.4709999999995
aF4877.4859999999999
aF5214.7150000000001
aF5255.2179999999998
aF5276.2719999999999
aF5276.2730000000001
aF5276.2740000000003
aF5289.7749999999996
aa(lp546
F4769.0659999999998
aF4792.7669999999998
aF4810.7340000000004
aF4810.7349999999997
aF4810.7359999999999
aF4810.7370000000001
aF4833.3940000000002
aF5219.9110000000001
aF5236.4110000000001
aF5259.5739999999996
aF5287.6400000000003
aa(lp547
F4760.0889999999999
aF4817.7460000000001
aF4817.7470000000003
aF4817.7479999999996
aF5227.8940000000002
aF5272.54
aF5272.5410000000002
aF5272.5420000000004
aF5272.5429999999997
aF5272.5439999999999
aF5272.5450000000001
aF5272.5460000000003
aF5272.5469999999996
aF5272.5479999999998
aF5272.549
aF5272.5500000000002
aF5272.5510000000004
aF5272.5519999999997
aF5272.5529999999999
aF5272.5540000000001
aF5272.5550000000003
aF5272.5559999999996
aF5272.5569999999998
aF5272.558
aF5272.5590000000002
aF5272.5600000000004
aF5272.5609999999997
aF5272.5619999999999
aaa(lp548
(lp549
F4950.1390000000001
aF4950.1400000000003
aF4950.1409999999996
aF4958.0450000000001
aF4977.8220000000001
aF5090.3770000000004
aF5142.7389999999996
aF5211.1270000000004
aF5238.0600000000004
aa(lp550
F4961.6350000000002
aF4992.2060000000001
aF5071.4120000000003
aF5123.9690000000001
aF5123.9700000000003
aF5203.8940000000002
aF5214.9989999999998
aa(lp551
F4945.1940000000004
aF4956.4620000000004
aF5073.1369999999997
aF5218.6970000000001
aF5218.6980000000003
aF5218.6989999999996
aa(lp552
F4937.9610000000002
aF4961.6279999999997
aF5067.5410000000002
aF5067.5420000000004
aF5215.6469999999999
aa(lp553
F4928.4189999999999
aF4944.5360000000001
aF5067.6989999999996
aF5205.0230000000001
aa(lp554
F4907.8289999999997
aF4916.2730000000001
aF4923.8379999999997
aF5181.152
aF5190.232
aF5203.4059999999999
aa(lp555
F4900.1329999999998
aF4900.134
aF4900.1350000000002
aF4910.2529999999997
aF4910.2539999999999
aF4910.2550000000001
aF4995.3990000000003
aF5168.2060000000001
aF5168.2070000000003
aF5179.2089999999998
aF5202.3879999999999
aa(lp556
F4890.9040000000005
aF4905.3980000000001
aF4986.4930000000004
aF5171.3100000000004
aF5171.3109999999997
aF5171.3119999999999
aF5171.3130000000001
aF5171.3140000000003
aF5171.3149999999996
aF5171.3159999999998
aF5190.3680000000004
aa(lp557
F4883.9759999999997
aF4895.8299999999999
aF4960.4359999999997
aF5155.4809999999998
aF5155.482
aF5155.4830000000002
aF5165.8149999999996
aF5410.3599999999997
aa(lp558
F4877.1279999999997
aF4877.1289999999999
aF4882.9120000000003
aF4882.9129999999996
aF4906.6880000000001
aF4906.6890000000003
aF5144.3239999999996
aF5144.3249999999998
aF5144.326
aF5153.9979999999996
aa(lp559
F4872.5699999999997
aF4877.8779999999997
aF4887.3850000000002
aF4919.0569999999998
aF5139.4660000000003
aF5139.4669999999996
aF5139.4679999999998
aF5149.8699999999999
aa(lp560
F4870.5829999999996
aF4887.6239999999998
aF4941.1880000000001
aF5141.5900000000001
aF5141.5910000000003
aF5141.5919999999996
aF5141.5929999999998
aF5141.5940000000001
aF5145.1239999999998
aa(lp561
F2819.9409999999998
aF4873.0110000000004
aF4932.1220000000003
aF5137.5739999999996
aF5146.04
aF5146.0410000000002
aF5146.0420000000004
aF5276.1989999999996
aa(lp562
F4842.8490000000002
aF4869.6319999999996
aF4869.6329999999998
aF4869.634
aF4935.0420000000004
aF5140.018
aF5143.3040000000001
aF5152.1629999999996
aa(lp563
F4848.174
aF4862.8059999999996
aF5158.9070000000002
aF5167.1949999999997
aF5315.7299999999996
aa(lp564
F4823.5860000000002
aF4823.5870000000004
aF4847.9719999999998
aF4904.8490000000002
aF4904.8500000000004
aF4904.8509999999997
aF5147.8469999999998
aF5177.6480000000001
aF5195.6790000000001
aF5263.6189999999997
aF5263.6199999999999
aF5263.6210000000001
aF5263.6220000000003
aF5263.6229999999996
aa(lp565
F4833.9139999999998
aF4833.915
aF4859.7070000000003
aF4859.7079999999996
aF4944.9300000000003
aF4944.9309999999996
aF4944.9319999999998
aF5036.2219999999998
aF5043.3519999999999
aF5052.2089999999998
aF5131.9449999999997
aF5131.9459999999999
aF5131.9470000000001
aF5200.8879999999999
aF5209.9930000000004
aF5433.058
aa(lp566
F4832.3429999999998
aF4965.183
aF4965.1840000000002
aF5043.2269999999999
aF5156.3029999999999
aF5217.0590000000002
aF5217.0600000000004
aF5231.5050000000001
aa(lp567
F100000
aa(lp568
F4811.6329999999998
aF4932.1210000000001
aF5011.8310000000001
aF5201.6890000000003
aF5248.4499999999998
aF5998.0519999999997
aa(lp569
F4811.5889999999999
aF4811.5900000000001
aF4811.5910000000003
aF4887.835
aF5220.4799999999996
aF5234.2520000000004
aF5268.7839999999997
aF5268.7849999999999
aF5268.7860000000001
aF5268.7870000000003
aa(lp570
F4805.2759999999998
aF4863.6949999999997
aF5061.4170000000004
aF5237.9459999999999
aF5277.2730000000001
aF5277.2740000000003
aF5277.2749999999996
aF5277.2759999999998
aF5277.277
aF6003.8580000000002
aa(lp571
F4793.1599999999999
aF4793.1610000000001
aF4793.1620000000003
aF4809.9530000000004
aF4809.9539999999997
aF4809.9549999999999
aF4844.2799999999997
aF5239.4430000000002
aF5239.4440000000004
aF5239.4449999999997
aF5294.8599999999997
aa(lp572
F4782.8220000000001
aF4808.7449999999999
aF4832.027
aF5235.2209999999995
aF5235.2219999999998
aF5235.223
aF5265.5730000000003
aF5273.2179999999998
aF5301.2219999999998
aF5301.223
aF5301.2240000000002
aF5301.2250000000004
aF5301.2259999999997
aF5301.2269999999999
aF9892.7909999999993
aa(lp573
F4772.0219999999999
aF4834.1679999999997
aF4834.1689999999999
aF5244.4719999999998
aF5244.473
aF5244.4740000000002
aF5277.0379999999996
aF5292.1419999999998
aF9801.6880000000001
aaa(lp574
(lp575
F4982.2089999999998
aF4994.0259999999998
aF5028.3639999999996
aF5121.5230000000001
aF5199.8109999999997
aF5277.5879999999997
aa(lp576
F4982.0060000000003
aF4992.0360000000001
aF4992.0370000000003
aF5228.0010000000002
aF5252.4260000000004
aF5314.326
aa(lp577
F4979.317
aF4985.2020000000002
aF5024.0060000000003
aF5094.5060000000003
aF5174.4459999999999
aF5247.4080000000004
aF5262.4579999999996
aa(lp578
F4976.4229999999998
aF5224.8159999999998
aF5240.8180000000002
aF5252.375
aa(lp579
F4957.8819999999996
aF4970.0559999999996
aF4993.5079999999998
aF5065.1989999999996
aF5226.2550000000001
aF5254.8270000000002
aa(lp580
F4942.5559999999996
aF4942.5569999999998
aF4942.558
aF4952.6149999999998
aF5043.3220000000001
aF5212.8400000000001
aF5218.2200000000003
aF5224.0429999999997
aF5260.2910000000002
aa(lp581
F4926.7420000000002
aF4936.7830000000004
aF4936.7839999999997
aF5028.29
aF5028.2910000000002
aF5028.2920000000004
aF5201.098
aF5205.7799999999997
aF5221.223
aa(lp582
F4916.9889999999996
aF4931.8890000000001
aF5011.402
aF5190.4570000000003
aF5196.1540000000005
aF5206.9070000000002
aF5263.1850000000004
aF5263.1869999999999
aa(lp583
F4913.3440000000001
aF4921.4250000000002
aF4959.741
aF4959.7420000000002
aF4995.4049999999997
aF5182
aF5193.3040000000001
aF5200.5479999999998
aa(lp584
F4909.2269999999999
aF4916.6350000000002
aF4938.4030000000002
aF4938.4040000000005
aF5182.7650000000003
aF6565.6419999999998
aa(lp585
F4904.6319999999996
aF4904.6329999999998
aF4911.9780000000001
aF4911.9790000000003
aF4965.5320000000002
aF5186.8580000000002
aF9550.2029999999995
aa(lp586
F4898.0950000000003
aF4898.0959999999995
aF4903.8800000000001
aF4911.5069999999996
aF4994.1909999999998
aF5163.3810000000003
aF5170.317
aa(lp587
F4903.0029999999997
aF4916.0959999999995
aF5171.4279999999999
aF5181.5990000000002
aa(lp588
F4882.5959999999995
aF4888.9759999999997
aF4902.8209999999999
aF5165.4690000000001
aF5168.7330000000002
aF5168.7340000000004
aF5168.7349999999997
aF5168.7359999999999
aF5179.7269999999999
aa(lp589
F4883.4780000000001
aF4896.9920000000002
aF5182.4250000000002
aF5197.9390000000003
aF5826.8620000000001
aF5827.25
aa(lp590
F4874.7749999999996
aF4874.7759999999998
aF4892.3620000000001
aF4892.3630000000003
aF4892.3639999999996
aF5103.0069999999996
aF5165.3220000000001
aF5191.1940000000004
aF5208.8109999999997
aF5221.2380000000003
aa(lp591
F4873.0339999999997
aF4885.2520000000004
aF4958.9610000000002
aF4958.9620000000004
aF5067.8879999999999
aF5073.2020000000002
aF5132.9809999999998
aF5145.9960000000001
aF5217.4799999999996
aF5227.5309999999999
aF5227.5320000000002
aF5227.5330000000004
aa(lp592
F4850.701
aF4858.8760000000002
aF4986.1360000000004
aF4986.1369999999997
aF5002.9920000000002
aF5025.8890000000001
aF5161.5609999999997
aF5171.5699999999997
aF5247.5720000000001
aa(lp593
F1839.537
aF5205.7889999999998
aF5232.1130000000003
aa(lp594
F4856.0720000000001
aF4979.2269999999999
aF5227.8959999999997
aF5263.4949999999999
aF5263.4960000000001
aF5263.4970000000003
aa(lp595
F4846.8180000000002
aF4951.9070000000002
aF5240.6300000000001
aF5275.5870000000004
aa(lp596
F4829.0749999999998
aF4913.6379999999999
aF4926.8459999999995
aF5250.7929999999997
aF5282.9499999999998
aF5282.951
aF5282.9520000000002
aF5282.9530000000004
aF5293.701
aa(lp597
F4816.8519999999999
aF4895.4639999999999
aF4895.4650000000001
aF4895.4669999999996
aF5251.2830000000004
aF5251.2839999999997
aF5251.2849999999999
aF5308.701
aa(lp598
F4799.7579999999998
aF4864.1099999999997
aF5246.7539999999999
aF5277.3990000000003
aF5316.9359999999997
aF5316.9369999999999
aF5316.9380000000001
aF5316.9390000000003
aF5316.9399999999996
aa(lp599
F4781.8379999999997
aF4793.5789999999997
aF4804.4769999999999
aF4804.4780000000001
aF4863.6729999999998
aF5245.4949999999999
aF5259.2839999999997
aF5259.2849999999999
aF5259.2860000000001
aF5301.4520000000002
aF5314.549
aaa(lp600
(lp601
F5012.1109999999999
aF5027.7560000000003
aF5027.7569999999996
aF5045.04
aF5156.7039999999997
aF5295.8059999999996
aF5307.3770000000004
aa(lp602
F5016.0010000000002
aF5025.7550000000001
aF5178.598
aF5300.0820000000003
aF5313.1639999999998
aa(lp603
F5009.3689999999997
aF5014.116
aF5046.067
aF5135.2150000000001
aF5290.0060000000003
aF5314.0739999999996
aa(lp604
F4997.3410000000003
aF5012.1210000000001
aF5174.2460000000001
aF5286.4089999999997
aF5731.0150000000003
aa(lp605
F4992.6239999999998
aF4992.625
aF4992.6260000000002
aF4992.6270000000004
aF5006.0690000000004
aF5121.9080000000004
aF5280.1639999999998
aF5297.8289999999997
aa(lp606
F4974.5060000000003
aF4983.0079999999998
aF5072.8069999999998
aF5072.808
aF5260.2030000000004
aF5275.5450000000001
aF5275.5460000000003
aF5275.5469999999996
aF5353.1260000000002
aF9831.4279999999999
aa(lp607
F4957.2960000000003
aF4970.5609999999997
aF5052.3649999999998
aF5248.5699999999997
aF5248.5709999999999
aF5261.4059999999999
aF5309.7809999999999
aa(lp608
F4954.8590000000004
aF4973.277
aF5050.2089999999998
aF5232.3630000000003
aF5244.6549999999997
aF5438.7539999999999
aa(lp609
F4943.6549999999997
aF4954.2449999999999
aF5019.7560000000003
aF5215.6599999999999
aF5227.366
aF5227.3670000000002
aF5227.3680000000004
aF5227.3689999999997
aF5227.3699999999999
aF5351.75
aa(lp610
F4941.0929999999998
aF4950.8559999999998
aF4984.4489999999996
aF4984.4499999999998
aF4984.451
aF5207.2340000000004
aF5207.2349999999997
aF5217.9279999999999
aF7387.4629999999997
aa(lp611
F4945.2780000000002
aF4961.6599999999999
aF5190.1540000000005
aF5196.3249999999998
aF5196.326
aF5204.6130000000003
aF5285.6469999999999
aa(lp612
F4926.6660000000002
aF4938.1660000000002
aF4938.1670000000004
aF4938.1679999999997
aF4938.1689999999999
aF5189.7920000000004
aF5194.1109999999999
aF5194.1120000000001
aF6190.915
aa(lp613
F4922.549
aF4931.9359999999997
aF4931.9369999999999
aF4931.9380000000001
aF4965.1379999999999
aF5191.7929999999997
aF5191.7939999999999
aF5191.7950000000001
aF5197.335
aa(lp614
F4922.9790000000003
aF4935.6930000000002
aF5187.79
aF5201.5169999999998
aa(lp615
F4933.8639999999996
aF5211.6809999999996
aF5211.6819999999998
aF5211.683
aF5211.6840000000002
aF5219.0219999999999
aa(lp616
F4909.4170000000004
aF4916.1540000000005
aF4948.2110000000002
aF5207.2619999999997
aF5225.9960000000001
aF5240.9620000000004
aF5240.9740000000002
aa(lp617
F4904.6809999999996
aF4915.0119999999997
aF4962.098
aF5095.4440000000004
aF5102.9350000000004
aF5102.9359999999997
aF5102.9369999999999
aF5102.9380000000001
aF5156.3879999999999
aF5171.0870000000004
aF5237.1689999999999
aF5246.6660000000002
aa(lp618
F4888.7389999999996
aF4888.7399999999998
aF4906.6999999999998
aF5064.6599999999999
aF5086.5060000000003
aF5186.7610000000004
aF5205.7510000000002
aF5267.201
aF5280.5900000000001
aa(lp619
F100000
aa(lp620
F4887.3459999999995
aF5040.8239999999996
aF5245.2169999999996
aF5290.643
aa(lp621
F4856.8590000000004
aF4903.1130000000003
aF4995.1099999999997
aF5023.509
aF5255.4470000000001
aF5296.9279999999999
aa(lp622
F4845.2749999999996
aF4917.7479999999996
aF4979.5969999999998
aF5006.7489999999998
aF5269.8159999999998
aF5304.6009999999997
aa(lp623
F4834.5870000000004
aF4921.7309999999998
aF4964.3490000000002
aF5266.9610000000002
aF5319.1080000000002
aa(lp624
F4812.6570000000002
aF4855.098
aF4918.482
aF4918.4830000000002
aF4952.9210000000003
aF5261.5439999999999
aF5301.3760000000002
aF5323.442
aF8259.2909999999993
aa(lp625
F4351.5889999999999
aF4818.384
aF4818.3850000000002
aF4904.5789999999997
aF5260.5860000000002
aF5279.9679999999998
aF5279.9690000000001
aF5279.9700000000003
aF5301.4639999999999
aF5324.6530000000002
aF5631.2849999999999
aaa(lp626
(lp627
F5043.6809999999996
aF5060.6239999999998
aF5094.3440000000001
aF5187.3540000000003
aF5280.723
aF5359.8909999999996
aa(lp628
F5055.6400000000003
aF5092.1400000000003
aF5177.2129999999997
aF5244.5789999999997
aF5315.1890000000003
aF5372.1779999999999
aa(lp629
F5043.5410000000002
aF5075.0609999999997
aF5075.0619999999999
aF5075.0630000000001
aF5171.5450000000001
aF5333.9350000000004
aF5381.884
aa(lp630
F5026.2550000000001
aF5045.7820000000002
aF5154.183
aF5330.9449999999997
aF5366.7209999999995
aa(lp631
F5022.0600000000004
aF5045.6800000000003
aF5130.0510000000004
aF5130.0519999999997
aF5130.0529999999999
aF5316.3040000000001
aF5343.2780000000002
aa(lp632
F5012.5609999999997
aF5018.9610000000002
aF5324.2860000000001
aF5324.2870000000003
aF5334.1719999999996
aa(lp633
F4988.0839999999998
aF4996.0320000000002
aF5088.7569999999996
aF5088.7579999999998
aF5088.759
aF5303.616
aF5316.6300000000001
aF5325.1400000000003
aa(lp634
F4984.4830000000002
aF4991.8909999999996
aF5071.2420000000002
aF5295.1559999999999
aF5301.3540000000003
aF5344.2879999999996
aa(lp635
F4982.4340000000002
aF4995.25
aF4995.2510000000002
aF4995.2520000000004
aF5066.1490000000003
aF5066.1499999999996
aF5066.1509999999998
aF5274.415
aF5286.9480000000003
aF5574.3320000000003
aa(lp636
F4978.0609999999997
aF4985.9870000000001
aF5013.0609999999997
aF5013.0619999999999
aF5242.8090000000002
aF5272.107
aF5363.4939999999997
aa(lp637
F4974.6180000000004
aF4995.9350000000004
aF5240.9430000000002
aF5268.6099999999997
aa(lp638
F4960.3280000000004
aF4967.4610000000002
aF4978.7070000000003
aF5062.2020000000002
aF5237.3299999999999
aF5251.6319999999996
aa(lp639
F4962.4520000000002
aF4962.4530000000004
aF4962.4539999999997
aF4979.2389999999996
aF5257.0029999999997
aF5257.0039999999999
aF5257.0050000000001
aF5257.0060000000003
aF5303.6620000000003
aa(lp640
F4950.8810000000003
aF4963.3559999999998
aF5031.8239999999996
aF5238.6369999999997
aa(lp641
F4940.9369999999999
aF4950.2380000000003
aF4950.2389999999996
aF4971.6099999999997
aF5230.8639999999996
aF5236.0450000000001
aF5440.5590000000002
aa(lp642
F4942.4870000000001
aF4942.4880000000003
aF4942.4889999999996
aF4951.4499999999998
aF5051.6629999999996
aF5224.6139999999996
aF5244.549
aF5263.0770000000002
aF5526.1499999999996
aa(lp643
F4947.2330000000002
aF4959.7219999999998
aF5084.1999999999998
aF5149.8180000000002
aF5263.5659999999998
aF5271.8980000000001
aa(lp644
F4940.8429999999998
aF4965.2910000000002
aF5168.0919999999996
aF5222.4650000000001
aF5271.8699999999999
aF5283.3019999999997
aa(lp645
F4944.0299999999997
aF5309.0640000000003
aa(lp646
F4945.866
aF4945.8670000000002
aF5132.6700000000001
aF5264.1329999999998
aF5292.7430000000004
aa(lp647
F4913.9769999999999
aF4913.9780000000001
aF4913.9790000000003
aF5103.942
aF5269.1080000000002
aF5312.4409999999998
aa(lp648
F4878.2799999999997
aF4878.2809999999999
aF4878.2820000000002
aF4892.2830000000004
aF4892.2839999999997
aF5070.6959999999999
aF5112.0240000000003
aF5274.933
aF5283.4380000000001
aF5308.7349999999997
aF5403.0150000000003
aa(lp649
F4857.2269999999999
aF4876.9129999999996
aF5027.585
aF5071.1310000000003
aF5279.9979999999996
aF5322.7430000000004
aF5322.7439999999997
aa(lp650
F4837.0619999999999
aF4837.0630000000001
aF5025.9489999999996
aF5099.9799999999996
aF5274.9539999999997
aF5274.9549999999999
aF5274.9560000000001
aF5337.7380000000003
aa(lp651
F4842.3209999999999
aF4842.3220000000001
aF4842.3230000000003
aF4947.3500000000004
aF4964.9390000000003
aF4999.1970000000001
aF5273.4989999999998
aF5285.665
aF5320.4399999999996
aF5335.799
aF5335.8000000000002
aF5335.8010000000004
aF5335.8019999999997
aaa.