(lp1
(F1161.2429999999999
I2
I0
I0
tp2
a(F1163.511
I0
I4
I0
tp3
a(F2120.0439999999999
I7
I4
I1
tp4
a(F2902.8850000000002
I0
I7
I1
tp5
a(F2940.4140000000002
I0
I8
I0
tp6
a(F2956.721
I1
I8
I0
tp7
a(F2972.7979999999998
I0
I8
I0
tp8
a(F3000.9639999999999
I2
I6
I0
tp9
a(F3080.0880000000002
I0
I9
I0
tp10
a(F3124.9940000000001
I2
I9
I0
tp11
a(F3144.681
I0
I7
I0
tp12
a(F3153.8789999999999
I1
I9
I0
tp13
a(F3165.71
I0
I1
I0
tp14
a(F3170.0410000000002
I0
I2
I0
tp15
a(F3176.8310000000001
I0
I3
I0
tp16
a(F3180.7530000000002
I0
I1
I0
tp17
a(F3183.79
I0
I2
I0
tp18
a(F3187.5520000000001
I0
I4
I0
tp19
a(F3188.9050000000002
I0
I0
I0
tp20
a(F3205.0929999999998
I0
I0
I0
tp21
a(F3206.0630000000001
I0
I4
I0
tp22
a(F3219.7289999999998
I0
I1
I0
tp23
a(F3222.4679999999998
I0
I5
I0
tp24
a(F3229.9540000000002
I0
I2
I0
tp25
a(F3247.5909999999999
I0
I6
I0
tp26
a(F3254.4560000000001
I0
I4
I0
tp27
a(F3283.2289999999998
I0
I0
I0
tp28
a(F3287.605
I1
I1
I0
tp29
a(F3289.52
I0
I3
I0
tp30
a(F3301.3069999999998
I1
I3
I0
tp31
a(F3315.2049999999999
I1
I4
I0
tp32
a(F3350.3939999999998
I0
I7
I0
tp33
a(F3360.9639999999999
I0
I5
I0
tp34
a(F3432.1210000000001
I0
I3
I0
tp35
a(F3458.9989999999998
I1
I0
I0
tp36
a(F3500.152
I1
I4
I0
tp37
a(F3505.6080000000002
I0
I2
I0
tp38
a(F3518.8780000000002
I0
I9
I0
tp39
a(F3520.0430000000001
I0
I7
I0
tp40
a(F3528.8180000000002
I0
I1
I0
tp41
a(F3535.587
I1
I7
I0
tp42
a(F3545.8850000000002
I0
I0
I0
tp43
a(F3548.8980000000001
I0
I2
I0
tp44
a(F3553.9830000000002
I0
I1
I0
tp45
a(F3556.4740000000002
I3
I9
I0
tp46
a(F3567.1460000000002
I3
I4
I0
tp47
a(F3570.5709999999999
I1
I9
I0
tp48
a(F3575.9400000000001
I2
I5
I0
tp49
a(F3578.9099999999999
I0
I0
I0
tp50
a(F3592.8229999999999
I2
I8
I0
tp51
a(F3596.5
I1
I7
I0
tp52
a(F3603.9169999999999
I2
I7
I0
tp53
a(F3605.5749999999998
I1
I9
I0
tp54
a(F3607.3939999999998
I3
I8
I0
tp55
a(F3608.7060000000001
I0
I5
I0
tp56
a(F3613.377
I0
I3
I0
tp57
a(F3630.9549999999999
I3
I7
I0
tp58
a(F3635.8800000000001
I4
I9
I0
tp59
a(F3639.5810000000001
I2
I8
I0
tp60
a(F3641.616
I4
I5
I0
tp61
a(F3655.2620000000002
I4
I8
I0
tp62
a(F3659.5500000000002
I5
I9
I0
tp63
a(F3662.306
I2
I9
I0
tp64
a(F3663.2640000000001
I0
I2
I0
tp65
a(F3665.3890000000001
I6
I8
I0
tp66
a(F3666.6320000000001
I4
I4
I0
tp67
a(F3669.5810000000001
I3
I8
I0
tp68
a(F3671.931
I5
I7
I0
tp69
a(F3677.4960000000001
I5
I8
I0
tp70
a(F3682.502
I0
I6
I0
tp71
a(F3683.9029999999998
I7
I8
I0
tp72
a(F3686.6579999999999
I5
I7
I0
tp73
a(F3691.2159999999999
I4
I8
I0
tp74
a(F3696.2399999999998
I5
I0
I0
tp75
a(F3703.8939999999998
I3
I4
I0
tp76
a(F3706.6179999999999
I7
I8
I0
tp77
a(F3708.4699999999998
I5
I2
I0
tp78
a(F3715.2159999999999
I4
I7
I0
tp79
a(F3717.672
I4
I9
I0
tp80
a(F3721.3890000000001
I1
I0
I0
tp81
a(F3728.4859999999999
I7
I8
I0
tp82
a(F3746.0520000000001
I1
I7
I0
tp83
a(F3748.3809999999999
I6
I7
I0
tp84
a(F3753.3739999999998
I0
I4
I0
tp85
a(F3759.8589999999999
I1
I1
I0
tp86
a(F3764.6309999999999
I5
I3
I0
tp87
a(F3769.0920000000001
I7
I8
I0
tp88
a(F3771.491
I5
I7
I0
tp89
a(F3772.8919999999998
I6
I8
I0
tp90
a(F3777.0459999999998
I5
I0
I0
tp91
a(F3778.1900000000001
I6
I7
I0
tp92
a(F3780.7649999999999
I4
I5
I0
tp93
a(F3784.8609999999999
I1
I5
I0
tp94
a(F3797.8899999999999
I0
I6
I0
tp95
a(F3806.2449999999999
I6
I3
I0
tp96
a(F3809.942
I5
I1
I0
tp97
a(F3816.5500000000002
I1
I3
I0
tp98
a(F3821.3380000000002
I0
I7
I0
tp99
a(F3823.567
I6
I2
I0
tp100
a(F3825.5039999999999
I6
I0
I0
tp101
a(F3835.6930000000002
I6
I5
I0
tp102
a(F3837.944
I1
I7
I0
tp103
a(F3841.4279999999999
I8
I8
I0
tp104
a(F3849.7840000000001
I6
I3
I0
tp105
a(F3853.7280000000001
I6
I0
I0
tp106
a(F3860.5230000000001
I6
I5
I0
tp107
a(F3861.9180000000001
I6
I1
I0
tp108
a(F3870.645
I6
I6
I0
tp109
a(F3875.337
I6
I4
I0
tp110
a(F3900.3969999999999
I5
I7
I0
tp111
a(F3907.6559999999999
I6
I0
I0
tp112
a(F3917.3699999999999
I5
I5
I0
tp113
a(F3920.855
I1
I6
I0
tp114
a(F3922.1729999999998
I6
I2
I0
tp115
a(F3953.8960000000002
I6
I4
I0
tp116
a(F3972.5590000000002
I9
I3
I0
tp117
a(F3974.4299999999998
I3
I3
I0
tp118
a(F3988.0610000000001
I0
I8
I0
tp119
a(F3995.761
I6
I9
I0
tp120
a(F4003.6500000000001
I3
I4
I0
tp121
a(F4006.489
I7
I8
I0
tp122
a(F4025.873
I0
I7
I0
tp123
a(F4031.2350000000001
I5
I2
I0
tp124
a(F4037.8020000000001
I7
I3
I0
tp125
a(F4042.7080000000001
I5
I4
I0
tp126
a(F4047.989
I4
I3
I0
tp127
a(F4049.4119999999998
I2
I4
I0
tp128
a(F4062.2449999999999
I3
I3
I0
tp129
a(F4070.4290000000001
I7
I2
I0
tp130
a(F4072.7260000000001
I1
I8
I0
tp131
a(F4077.2600000000002
I8
I3
I0
tp132
a(F4099.7460000000001
I0
I9
I0
tp133
a(F4100.9549999999999
I1
I7
I0
tp134
a(F4102.567
I8
I2
I0
tp135
a(F4106.9549999999999
I0
I7
I0
tp136
a(F4108.8360000000002
I4
I4
I0
tp137
a(F4113.7809999999999
I7
I1
I0
tp138
a(F4120.7939999999999
I3
I8
I0
tp139
a(F4137.6149999999998
I3
I7
I0
tp140
a(F4147.692
I8
I0
I0
tp141
a(F4151.4489999999996
I8
I1
I0
tp142
a(F4154.6679999999997
I3
I4
I0
tp143
a(F4158.9170000000004
I1
I7
I0
tp144
a(F4168.1459999999997
I4
I3
I0
tp145
a(F4169.3810000000003
I4
I5
I0
tp146
a(F4173.0370000000003
I5
I2
I0
tp147
a(F4182.2290000000003
I4
I7
I0
tp148
a(F4185.5569999999998
I4
I4
I0
tp149
a(F4198.7830000000004
I2
I7
I0
tp150
a(F4207.6419999999998
I4
I7
I0
tp151
a(F4226.4040000000005
I2
I7
I0
tp152
a(F4228.6580000000004
I4
I5
I0
tp153
a(F4240.1390000000001
I3
I7
I0
tp154
a(F4244.6149999999998
I5
I8
I0
tp155
a(F4268.8699999999999
I4
I7
I0
tp156
a(F4272.8239999999996
I3
I8
I0
tp157
a(F4305.348
I7
I4
I0
tp158
a(F4307.634
I4
I8
I0
tp159
a(F4316.0360000000001
I8
I4
I0
tp160
a(F4327.79
I9
I2
I0
tp161
a(F4330.451
I7
I6
I0
tp162
a(F4338.5240000000003
I5
I7
I0
tp163
a(F4340.1809999999996
I8
I5
I0
tp164
a(F4348.7110000000002
I9
I1
I0
tp165
a(F4354.5709999999999
I5
I8
I0
tp166
a(F4363.6679999999997
I8
I6
I0
tp167
a(F4373.2719999999999
I7
I4
I0
tp168
a(F4380.1599999999999
I9
I3
I0
tp169
a(F4401.4719999999998
I9
I6
I0
tp170
a(F4407.2780000000002
I5
I1
I0
tp171
a(F4413.8140000000003
I8
I2
I0
tp172
a(F4417.201
I9
I4
I0
tp173
a(F4424.4129999999996
I8
I6
I0
tp174
a(F4426.4560000000001
I5
I3
I0
tp175
a(F4428.6729999999998
I5
I2
I0
tp176
a(F4438.9849999999997
I5
I0
I0
tp177
a(F4439.4759999999997
I8
I3
I1
tp178
a(F4444.6279999999997
I8
I4
I0
tp179
a(F4447.5129999999999
I0
I8
I1
tp180
a(F4449.6949999999997
I5
I6
I0
tp181
a(F4452.9409999999998
I9
I6
I0
tp182
a(F4482.6300000000001
I6
I0
I0
tp183
a(F4498.6970000000001
I1
I8
I1
tp184
a(F4499.8819999999996
I0
I7
I1
tp185
a(F4508.0379999999996
I6
I0
I0
tp186
a(F4516.7950000000001
I1
I7
I1
tp187
a(F4525.3850000000002
I5
I4
I0
tp188
a(F4526.8069999999998
I8
I5
I0
tp189
a(F4532.2030000000004
I0
I8
I1
tp190
a(F4548.9369999999999
I3
I0
I0
tp191
a(F4551.0050000000001
I6
I0
I0
tp192
a(F4571.9859999999999
I5
I5
I0
tp193
a(F4574.4009999999998
I6
I1
I0
tp194
a(F4576.0429999999997
I9
I4
I0
tp195
a(F4578.5360000000001
I9
I4
I0
tp196
a(F4579.893
I6
I3
I0
tp197
a(F4580.009
I0
I6
I1
tp198
a(F4596.9369999999999
I6
I2
I0
tp199
a(F4615.9099999999999
I0
I5
I1
tp200
a(F4622.9750000000004
I7
I1
I0
tp201
a(F4626.8469999999998
I7
I0
I0
tp202
a(F4630.2340000000004
I2
I9
I0
tp203
a(F4632.5720000000001
I6
I5
I0
tp204
a(F4649.9380000000001
I0
I3
I0
tp205
a(F4656.8990000000003
I7
I9
I1
tp206
a(F4665.5159999999996
I7
I2
I0
tp207
a(F4669.884
I6
I6
I0
tp208
a(F4671.3029999999999
I6
I4
I0
tp209
a(F4683.3050000000003
I6
I5
I0
tp210
a(F4697.549
I8
I4
I0
tp211
a(F4717.2550000000001
I0
I2
I1
tp212
a(F4718.29
I4
I7
I0
tp213
a(F4719.7129999999997
I0
I7
I1
tp214
a(F4725.393
I7
I0
I0
tp215
a(F4734.3789999999999
I8
I1
I0
tp216
a(F4735.1959999999999
I0
I4
I1
tp217
a(F4736.2910000000002
I8
I0
I0
tp218
a(F4740.4709999999995
I3
I9
I1
tp219
a(F4741.8909999999996
I0
I1
I1
tp220
a(F4745.3800000000001
I7
I3
I0
tp221
a(F4749.4480000000003
I6
I7
I0
tp222
a(F4750.7160000000003
I8
I2
I0
tp223
a(F4754.7759999999998
I7
I6
I0
tp224
a(F4758.6170000000002
I5
I9
I0
tp225
a(F4764.9669999999996
I1
I2
I1
tp226
a(F4772.0659999999998
I8
I3
I0
tp227
a(F4783.6379999999999
I7
I1
I0
tp228
a(F4787.3739999999998
I8
I6
I0
tp229
a(F4799.8779999999997
I1
I3
I1
tp230
a(F4803.6369999999997
I9
I1
I0
tp231
a(F4808.433
I5
I8
I0
tp232
a(F4809.9870000000001
I7
I7
I0
tp233
a(F4814.2259999999997
I9
I2
I0
tp234
a(F4816.393
I8
I4
I0
tp235
a(F4827.1459999999997
I1
I1
I1
tp236
a(F4827.723
I9
I3
I0
tp237
a(F4829.1319999999996
I6
I3
I0
tp238
a(F4838.3450000000003
I2
I2
I1
tp239
a(F4842.2870000000003
I2
I1
I1
tp240
a(F4850.2569999999996
I2
I0
I1
tp241
a(F4852.3010000000004
I2
I3
I1
tp242
a(F4857.9129999999996
I1
I6
I1
tp243
a(F4865.8940000000002
I2
I2
I1
tp244
a(F4870.018
I9
I6
I0
tp245
a(F4879.3469999999998
I2
I0
I1
tp246
a(F4883.8090000000002
I0
I0
I1
tp247
a(F4901.8819999999996
I0
I8
I0
tp248
a(F4907.2039999999997
I8
I6
I0
tp249
a(F4926.826
I9
I6
I0
tp250
a(F4932.5450000000001
I2
I2
I1
tp251
a(F4939.4939999999997
I3
I3
I1
tp252
a(F4945.3429999999998
I3
I2
I1
tp253
a(F4948.8429999999998
I0
I3
I1
tp254
a(F4950.3500000000004
I7
I7
I0
tp255
a(F4955.9030000000002
I3
I0
I1
tp256
a(F4960.9260000000004
I3
I1
I1
tp257
a(F4967.2640000000001
I2
I0
I1
tp258
a(F4978.2439999999997
I3
I1
I1
tp259
a(F4980.585
I3
I2
I1
tp260
a(F4982.7150000000001
I3
I3
I1
tp261
a(F4985.1999999999998
I0
I3
I1
tp262
a(F4992.4309999999996
I1
I5
I1
tp263
a(F4997.3050000000003
I2
I4
I1
tp264
a(F5002.8090000000002
I0
I4
I0
tp265
a(F5003.0060000000003
I1
I7
I1
tp266
a(F5008.5749999999998
I3
I0
I1
tp267
a(F5009.8310000000001
I0
I7
I1
tp268
a(F5014.3019999999997
I1
I2
I1
tp269
a(F5023.5860000000002
I4
I2
I1
tp270
a(F5027.3069999999998
I2
I5
I1
tp271
a(F5035.4549999999999
I4
I0
I1
tp272
a(F5038.9979999999996
I4
I2
I1
tp273
a(F5045.4430000000002
I3
I4
I1
tp274
a(F5052.0630000000001
I1
I7
I1
tp275
a(F5053.9300000000003
I2
I6
I1
tp276
a(F5055.0010000000002
I0
I6
I1
tp277
a(F5057.6999999999998
I4
I1
I1
tp278
a(F5059.6030000000001
I2
I5
I1
tp279
a(F5060.3459999999995
I6
I2
I0
tp280
a(F5060.8220000000001
I3
I5
I1
tp281
a(F5067.9750000000004
I1
I9
I1
tp282
a(F5072.0699999999997
I1
I7
I1
tp283
a(F5074.5169999999998
I3
I4
I1
tp284
a(F5075.4799999999996
I3
I8
I1
tp285
a(F5078.5820000000003
I4
I0
I1
tp286
a(F5079.6700000000001
I4
I9
I1
tp287
a(F5083.2399999999998
I3
I6
I1
tp288
a(F5086.4269999999997
I2
I4
I1
tp289
a(F5087.75
I2
I6
I1
tp290
a(F5093.125
I3
I6
I1
tp291
a(F5097.7920000000004
I5
I9
I1
tp292
a(F5099.4549999999999
I5
I3
I1
tp293
a(F5101.1989999999996
I5
I2
I1
tp294
a(F5109.6350000000002
I5
I1
I1
tp295
a(F5110.9750000000004
I2
I7
I1
tp296
a(F5112.4740000000002
I4
I3
I1
tp297
a(F5114.5659999999998
I3
I2
I1
tp298
a(F5115.8469999999998
I3
I6
I1
tp299
a(F5120.9750000000004
I4
I5
I1
tp300
a(F5122.116
I4
I7
I1
tp301
a(F5126.3850000000002
I3
I1
I1
tp302
a(F5129.0839999999998
I5
I2
I1
tp303
a(F5130.2439999999997
I4
I8
I1
tp304
a(F5131.3819999999996
I3
I7
I1
tp305
a(F5133.2550000000001
I5
I1
I1
tp306
a(F5140.6949999999997
I3
I6
I1
tp307
a(F5141.9200000000001
I5
I0
I1
tp308
a(F5145.7219999999998
I3
I8
I1
tp309
a(F5150.3919999999998
I6
I3
I1
tp310
a(F5151.5079999999998
I0
I0
I0
tp311
a(F5151.7929999999997
I6
I9
I1
tp312
a(F5153.3599999999997
I5
I3
I1
tp313
a(F5158.9219999999996
I5
I1
I1
tp314
a(F5161.0810000000001
I5
I7
I1
tp315
a(F5163.598
I5
I6
I1
tp316
a(F5164.893
I6
I8
I1
tp317
a(F5166.6660000000002
I4
I9
I1
tp318
a(F5172.1469999999999
I4
I7
I1
tp319
a(F5174.701
I5
I5
I1
tp320
a(F5175.9709999999995
I4
I8
I1
tp321
a(F5178.6379999999999
I4
I6
I1
tp322
a(F5192.3980000000001
I4
I5
I1
tp323
a(F5195.0219999999999
I5
I0
I1
tp324
a(F5196.3689999999997
I6
I3
I1
tp325
a(F5199.9880000000003
I5
I4
I1
tp326
a(F5204.0780000000004
I2
I4
I1
tp327
a(F5205.165
I3
I3
I1
tp328
a(F5207.2690000000002
I4
I4
I1
tp329
a(F5211.424
I6
I5
I1
tp330
a(F5223.4939999999997
I9
I8
I1
tp331
a(F5224.4350000000004
I5
I8
I1
tp332
a(F5232.652
I5
I7
I1
tp333
a(F5234.9930000000004
I2
I4
I1
tp334
a(F5241.4989999999998
I2
I5
I1
tp335
a(F5251.799
I5
I9
I1
tp336
a(F5256.8490000000002
I6
I2
I1
tp337
a(F5259.6189999999997
I5
I6
I1
tp338
a(F5263.8639999999996
I6
I8
I1
tp339
a(F5265.116
I5
I5
I1
tp340
a(F5269.8490000000002
I5
I0
I1
tp341
a(F5274.8239999999996
I8
I9
I1
tp342
a(F5275.9219999999996
I1
I1
I1
tp343
a(F5283.5460000000003
I2
I5
I1
tp344
a(F5290.0600000000004
I4
I2
I1
tp345
a(F5294.674
I5
I5
I1
tp346
a(F5296.9610000000002
I9
I4
I0
tp347
a(F5299.8230000000003
I2
I0
I1
tp348
a(F5302.1509999999998
I6
I0
I1
tp349
a(F5309.4089999999997
I2
I1
I1
tp350
a(F5313.567
I2
I0
I1
tp351
a(F5315.5590000000002
I6
I1
I1
tp352
a(F5321.4250000000002
I6
I2
I1
tp353
a(F5322.7790000000005
I5
I1
I1
tp354
a(F5324.1570000000002
I4
I5
I1
tp355
a(F5329.0770000000002
I2
I2
I1
tp356
a(F5330.1530000000002
I5
I4
I1
tp357
a(F5331.665
I6
I3
I1
tp358
a(F5335.1080000000002
I2
I6
I1
tp359
a(F5338.1840000000002
I2
I1
I1
tp360
a(F5339.3609999999999
I7
I1
I1
tp361
a(F5341.8630000000003
I5
I2
I1
tp362
a(F5346.4480000000003
I2
I2
I1
tp363
a(F5347.3810000000003
I3
I4
I1
tp364
a(F5353.2209999999995
I2
I0
I1
tp365
a(F5355.9679999999998
I7
I2
I1
tp366
a(F5363.1360000000004
I7
I0
I1
tp367
a(F5371.4719999999998
I8
I4
I1
tp368
a(F5374.3410000000003
I1
I6
I1
tp369
a(F5379.1980000000003
I2
I3
I1
tp370
a(F5382.7690000000002
I6
I0
I1
tp371
a(F5383.7979999999998
I7
I1
I1
tp372
a(F5385.6059999999998
I7
I3
I1
tp373
a(F5387.3729999999996
I3
I4
I1
tp374
a(F5392.5240000000003
I8
I8
I1
tp375
a(F5395.2330000000002
I3
I0
I1
tp376
a(F5402.5069999999996
I3
I2
I1
tp377
a(F5405.2389999999996
I3
I5
I1
tp378
a(F5408.5379999999996
I2
I8
I1
tp379
a(F5411.3199999999997
I3
I2
I1
tp380
a(F5416.4499999999998
I2
I2
I1
tp381
a(F5421.643
I1
I7
I1
tp382
a(F5425.973
I5
I4
I1
tp383
a(F5428.0879999999997
I3
I3
I1
tp384
a(F5430.7349999999997
I3
I5
I1
tp385
a(F5433.5339999999997
I8
I3
I1
tp386
a(F5436.6909999999998
I2
I4
I1
tp387
a(F5438.7089999999998
I3
I1
I1
tp388
a(F5442.3109999999997
I3
I2
I1
tp389
a(F5445.665
I3
I3
I1
tp390
a(F5448.9260000000004
I7
I0
I1
tp391
a(F5452.1599999999999
I2
I5
I1
tp392
a(F5454.0100000000002
I8
I0
I1
tp393
a(F5459.5249999999996
I3
I4
I1
tp394
a(F5460.7650000000003
I4
I1
I1
tp395
a(F5462.4989999999998
I8
I3
I1
tp396
a(F5465.2569999999996
I4
I0
I1
tp397
a(F5466.2849999999999
I8
I1
I1
tp398
a(F5470.9229999999998
I8
I0
I1
tp399
a(F5472.6750000000002
I4
I0
I1
tp400
a(F5474.9849999999997
I4
I2
I1
tp401
a(F5483.8329999999996
I3
I0
I1
tp402
a(F5485.5680000000002
I6
I4
I1
tp403
a(F5488.2470000000003
I4
I0
I1
tp404
a(F5489.2399999999998
I3
I6
I1
tp405
a(F5490.8019999999997
I4
I5
I1
tp406
a(F5493.5730000000003
I3
I4
I1
tp407
a(F5495.9660000000003
I4
I3
I1
tp408
a(F5502.4449999999997
I1
I8
I1
tp409
a(F5506.3299999999999
I4
I3
I1
tp410
a(F5507.9690000000001
I5
I4
I1
tp411
a(F5509.8609999999999
I4
I5
I1
tp412
a(F5511.8400000000001
I4
I1
I1
tp413
a(F5513.6940000000004
I7
I4
I1
tp414
a(F5516.7380000000003
I6
I1
I1
tp415
a(F5520.7960000000003
I8
I1
I1
tp416
a(F5523.1559999999999
I8
I6
I1
tp417
a(F5526.3599999999997
I3
I4
I1
tp418
a(F5531.3760000000002
I2
I7
I1
tp419
a(F5533.5200000000004
I2
I6
I1
tp420
a(F5537.9629999999997
I5
I0
I1
tp421
a(F5540.3469999999998
I3
I7
I1
tp422
a(F5542.3469999999998
I5
I1
I1
tp423
a(F5544.2950000000001
I9
I2
I1
tp424
a(F5549.3549999999996
I1
I7
I1
tp425
a(F5550.268
I5
I3
I1
tp426
a(F5554.857
I9
I1
I1
tp427
a(F5557.3710000000001
I9
I3
I1
tp428
a(F5563.0609999999997
I8
I7
I1
tp429
a(F5565.2039999999997
I4
I0
I1
tp430
a(F5571.7860000000001
I4
I4
I1
tp431
a(F5573.723
I9
I0
I1
tp432
a(F5576.4769999999999
I5
I3
I1
tp433
a(F5577.4840000000004
I7
I8
I0
tp434
a(F5581.7299999999996
I6
I4
I1
tp435
a(F5583.8130000000001
I9
I2
I1
tp436
a(F5585.4629999999997
I3
I9
I1
tp437
a(F5587.2849999999999
I5
I0
I1
tp438
a(F5592.9970000000003
I4
I8
I1
tp439
a(F5594.4030000000002
I5
I1
I1
tp440
a(F5596.1509999999998
I4
I4
I1
tp441
a(F5597.3329999999996
I2
I8
I1
tp442
a(F5601.0479999999998
I4
I6
I1
tp443
a(F5604.5379999999996
I4
I7
I1
tp444
a(F5610.3590000000004
I6
I1
I1
tp445
a(F5611.473
I6
I3
I1
tp446
a(F5613.2219999999998
I9
I1
I1
tp447
a(F5622.0290000000005
I9
I0
I1
tp448
a(F5624.2430000000004
I8
I3
I1
tp449
a(F5625.3879999999999
I3
I6
I1
tp450
a(F5631.9700000000003
I6
I2
I1
tp451
a(F5635.2659999999996
I3
I7
I1
tp452
a(F5637.7269999999999
I6
I0
I1
tp453
a(F5639.0479999999998
I6
I4
I1
tp454
a(F5640.7280000000001
I5
I5
I1
tp455
a(F5642.2579999999998
I6
I5
I1
tp456
a(F5648.9799999999996
I5
I8
I1
tp457
a(F5654.4309999999996
I5
I6
I1
tp458
a(F5655.5249999999996
I5
I5
I1
tp459
a(F5657.8450000000003
I5
I7
I1
tp460
a(F5665.7460000000001
I5
I5
I1
tp461
a(F5670.143
I6
I0
I1
tp462
a(F5674.2370000000001
I4
I6
I1
tp463
a(F5677.5569999999998
I6
I5
I1
tp464
a(F5678.8119999999999
I5
I6
I1
tp465
a(F5687.5959999999995
I4
I7
I1
tp466
a(F5694.0339999999997
I5
I6
I1
tp467
a(F5697.8429999999998
I6
I5
I1
tp468
a(F5702.8429999999998
I4
I8
I1
tp469
a(F5714.3010000000004
I5
I7
I1
tp470
a(F5732.5299999999997
I6
I8
I0
tp471
a(F5735.6710000000003
I3
I7
I1
tp472
a(F5736.0900000000001
I6
I4
I0
tp473
a(F5748.6840000000002
I7
I1
I1
tp474
a(F5753.8329999999996
I6
I7
I1
tp475
a(F5765.7520000000004
I9
I4
I1
tp476
a(F5770.1710000000003
I7
I0
I1
tp477
a(F5777.3729999999996
I7
I4
I1
tp478
a(F5781.7269999999999
I7
I1
I1
tp479
a(F5785.107
I9
I5
I1
tp480
a(F5787.6040000000003
I7
I2
I1
tp481
a(F5798.1679999999997
I8
I6
I1
tp482
a(F5800.96
I9
I6
I1
tp483
a(F5803.29
I9
I7
I1
tp484
a(F5806.2030000000004
I9
I5
I1
tp485
a(F5817.3639999999996
I7
I0
I1
tp486
a(F5867.7600000000002
I9
I5
I1
tp487
a(F5902.5
I9
I6
I1
tp488
a(F5910.6000000000004
I9
I4
I1
tp489
a(F5912.0619999999999
I7
I3
I1
tp490
a(F5914.6909999999998
I2
I8
I1
tp491
a(F5933.241
I9
I5
I1
tp492
a(F5936.1149999999998
I7
I9
I1
tp493
a(F5969.5500000000002
I1
I2
I1
tp494
a(F5983.2190000000001
I8
I1
I1
tp495
a(F5992.6980000000003
I9
I0
I1
tp496
a(F6005.4880000000003
I8
I1
I1
tp497
a(F6008.7309999999998
I1
I5
I1
tp498
a(F6016.674
I8
I2
I1
tp499
a(F6033.4110000000001
I8
I0
I1
tp500
a(F6036.4040000000005
I9
I4
I1
tp501
a(F6040.9430000000002
I9
I8
I1
tp502
a(F6052.0519999999997
I8
I1
I1
tp503
a(F6054.3620000000001
I8
I2
I1
tp504
a(F6060.8999999999996
I9
I5
I1
tp505
a(F6076.4210000000003
I8
I3
I1
tp506
a(F6086.2860000000001
I8
I0
I1
tp507
a(F6112.8869999999997
I9
I9
I1
tp508
a(F6115.5550000000003
I8
I3
I1
tp509
a(F6146.5
I9
I5
I1
tp510
a(F6152.4830000000002
I8
I4
I1
tp511
a(F6172.2799999999997
I9
I1
I1
tp512
a(F6176.7179999999998
I5
I3
I1
tp513
a(F6177.6239999999998
I8
I3
I1
tp514
a(F6178.7809999999999
I9
I2
I1
tp515
a(F6182.2510000000002
I9
I0
I1
tp516
a(F6192.5619999999999
I8
I5
I1
tp517
a(F6204.8490000000002
I9
I0
I1
tp518
a(F6207.652
I9
I6
I1
tp519
a(F6211.4679999999998
I9
I3
I1
tp520
a(F6215.1610000000001
I8
I6
I1
tp521
a(F6216.2309999999998
I2
I6
I1
tp522
a(F6226.8010000000004
I7
I9
I1
tp523
a(F6237.7889999999998
I9
I1
I1
tp524
a(F6259.4960000000001
I8
I4
I1
tp525
a(F6268.1080000000002
I7
I0
I1
tp526
a(F6270.5540000000001
I9
I8
I1
tp527
a(F6273.1629999999996
I8
I5
I1
tp528
a(F6287.0619999999999
I9
I4
I1
tp529
a(F6297.1499999999996
I9
I5
I1
tp530
a(F6304.6390000000001
I9
I3
I1
tp531
a(F6306.2520000000004
I8
I6
I1
tp532
a(F6311.6999999999998
I8
I7
I1
tp533
a(F6330.3389999999999
I5
I0
I0
tp534
a(F6374.7079999999996
I9
I4
I1
tp535
a(F6383.6589999999997
I9
I5
I1
tp536
a(F6392.7960000000003
I8
I7
I1
tp537
a(F6405.2179999999998
I9
I9
I1
tp538
a(F6407.125
I9
I6
I1
tp539
a(F6430.1859999999997
I8
I7
I1
tp540
a(F6451.857
I7
I8
I1
tp541
a(F6477.2430000000004
I9
I8
I1
tp542
a(F6494.6409999999996
I8
I9
I1
tp543
a(F6517.607
I1
I0
I1
tp544
a(F6534.9709999999995
I3
I7
I0
tp545
a(F6538.0469999999996
I9
I8
I1
tp546
a(F6627.6660000000002
I4
I5
I1
tp547
a(F6759.0720000000001
I6
I1
I1
tp548
a(F6909.0709999999999
I9
I0
I0
tp549
a(F7048.9440000000004
I3
I6
I1
tp550
a(F7057.2740000000003
I5
I1
I0
tp551
a(F7204.7579999999998
I9
I7
I1
tp552
a(F7235.3249999999998
I0
I5
I0
tp553
a(F7313.9250000000002
I1
I9
I0
tp554
a(F7729.424
I4
I9
I0
tp555
a(F8241.902
I6
I4
I1
tp556
a(F8480.991
I6
I0
I1
tp557
a(F8920.3909999999996
I2
I4
I1
tp558
a(F9151.7569999999996
I8
I6
I0
tp559
a(F9243.8050000000003
I7
I4
I0
tp560
a.