(lp1
(F3000.9639999999999
I0
I4
I0
tp2
a(F3567.1460000000002
I1
I2
I0
tp3
a(F3575.9400000000001
I0
I3
I0
tp4
a(F3641.616
I2
I3
I0
tp5
a(F3666.6320000000001
I2
I2
I0
tp6
a(F3703.8939999999998
I1
I2
I0
tp7
a(F3708.4699999999998
I3
I0
I0
tp8
a(F3746.2350000000001
I3
I4
I0
tp9
a(F3764.6309999999999
I3
I1
I0
tp10
a(F3780.7649999999999
I2
I3
I0
tp11
a(F3806.2449999999999
I4
I1
I0
tp12
a(F3823.567
I4
I0
I0
tp13
a(F3835.6930000000002
I4
I3
I0
tp14
a(F3849.7840000000001
I4
I1
I0
tp15
a(F3854.4690000000001
I2
I2
I0
tp16
a(F3860.5230000000001
I4
I3
I0
tp17
a(F3870.645
I4
I4
I0
tp18
a(F3875.337
I4
I2
I0
tp19
a(F3917.3699999999999
I3
I3
I0
tp20
a(F3922.1729999999998
I4
I0
I0
tp21
a(F3953.8960000000002
I4
I2
I0
tp22
a(F3974.4299999999998
I1
I1
I0
tp23
a(F4003.6500000000001
I1
I2
I0
tp24
a(F4031.2350000000001
I3
I0
I0
tp25
a(F4042.7080000000001
I3
I2
I0
tp26
a(F4047.989
I2
I1
I0
tp27
a(F4049.4119999999998
I0
I2
I0
tp28
a(F4062.2449999999999
I1
I1
I0
tp29
a(F4108.8360000000002
I2
I2
I0
tp30
a(F4154.6679999999997
I1
I2
I0
tp31
a(F4168.1459999999997
I2
I1
I0
tp32
a(F4169.3810000000003
I2
I3
I0
tp33
a(F4173.0370000000003
I3
I0
I0
tp34
a(F4185.5569999999998
I2
I2
I0
tp35
a(F4228.6580000000004
I2
I3
I0
tp36
a(F4426.4560000000001
I3
I1
I0
tp37
a(F4428.6729999999998
I3
I0
I0
tp38
a(F4449.6949999999997
I3
I4
I0
tp39
a(F4525.3850000000002
I3
I2
I0
tp40
a(F4571.9859999999999
I3
I3
I0
tp41
a(F4579.893
I4
I1
I0
tp42
a(F4596.9369999999999
I4
I0
I0
tp43
a(F4632.5720000000001
I4
I3
I0
tp44
a(F4669.884
I4
I4
I0
tp45
a(F4671.3029999999999
I4
I2
I0
tp46
a(F4683.3050000000003
I4
I3
I0
tp47
a(F4725.6180000000004
I4
I4
I0
tp48
a(F4829.1319999999996
I4
I1
I0
tp49
a(F4838.3450000000003
I0
I0
I1
tp50
a(F4852.3010000000004
I0
I1
I1
tp51
a(F4865.8940000000002
I0
I0
I1
tp52
a(F4884.6390000000001
I0
I1
I1
tp53
a(F4932.5450000000001
I0
I0
I1
tp54
a(F4939.4939999999997
I1
I1
I1
tp55
a(F4945.3429999999998
I1
I0
I1
tp56
a(F4980.585
I1
I0
I1
tp57
a(F4982.7150000000001
I1
I1
I1
tp58
a(F4997.3050000000003
I0
I2
I1
tp59
a(F5010.3230000000003
I2
I1
I1
tp60
a(F5023.5860000000002
I2
I0
I1
tp61
a(F5027.3069999999998
I0
I3
I1
tp62
a(F5038.9979999999996
I2
I0
I1
tp63
a(F5045.4430000000002
I1
I2
I1
tp64
a(F5053.9300000000003
I0
I4
I1
tp65
a(F5059.6030000000001
I0
I3
I1
tp66
a(F5060.3459999999995
I4
I0
I0
tp67
a(F5060.8220000000001
I1
I3
I1
tp68
a(F5068.634
I2
I1
I1
tp69
a(F5074.5169999999998
I1
I2
I1
tp70
a(F5076.3230000000003
I1
I3
I1
tp71
a(F5080.5140000000001
I3
I0
I1
tp72
a(F5083.2399999999998
I1
I4
I1
tp73
a(F5086.4269999999997
I0
I2
I1
tp74
a(F5087.75
I0
I4
I1
tp75
a(F5093.125
I1
I4
I1
tp76
a(F5097.9870000000001
I0
I3
I1
tp77
a(F5099.4549999999999
I3
I1
I1
tp78
a(F5101.1989999999996
I3
I0
I1
tp79
a(F5112.4740000000002
I2
I1
I1
tp80
a(F5114.5659999999998
I1
I0
I1
tp81
a(F5115.8469999999998
I1
I4
I1
tp82
a(F5120.9750000000004
I2
I3
I1
tp83
a(F5122.585
I2
I4
I1
tp84
a(F5129.0839999999998
I3
I0
I1
tp85
a(F5140.6949999999997
I1
I4
I1
tp86
a(F5146.3450000000003
I1
I2
I1
tp87
a(F5150.3919999999998
I4
I1
I1
tp88
a(F5152.0209999999997
I1
I3
I1
tp89
a(F5153.3599999999997
I3
I1
I1
tp90
a(F5163.598
I3
I4
I1
tp91
a(F5174.701
I3
I3
I1
tp92
a(F5178.6379999999999
I2
I4
I1
tp93
a(F5192.3980000000001
I2
I3
I1
tp94
a(F5196.3689999999997
I4
I1
I1
tp95
a(F5199.9880000000003
I3
I2
I1
tp96
a(F5204.0780000000004
I0
I2
I1
tp97
a(F5205.165
I1
I1
I1
tp98
a(F5207.2690000000002
I2
I2
I1
tp99
a(F5211.424
I4
I3
I1
tp100
a(F5225.0829999999996
I4
I2
I1
tp101
a(F5234.9930000000004
I0
I2
I1
tp102
a(F5241.4989999999998
I0
I3
I1
tp103
a(F5256.8490000000002
I4
I0
I1
tp104
a(F5259.6189999999997
I3
I4
I1
tp105
a(F5265.116
I3
I3
I1
tp106
a(F5283.5460000000003
I0
I3
I1
tp107
a(F5290.0600000000004
I2
I0
I1
tp108
a(F5294.674
I3
I3
I1
tp109
a(F5321.4250000000002
I4
I0
I1
tp110
a(F5324.1570000000002
I2
I3
I1
tp111
a(F5329.0770000000002
I0
I0
I1
tp112
a(F5330.1530000000002
I3
I2
I1
tp113
a(F5331.665
I4
I1
I1
tp114
a(F5335.1080000000002
I0
I4
I1
tp115
a(F5341.8630000000003
I3
I0
I1
tp116
a(F5346.4480000000003
I0
I0
I1
tp117
a(F5347.3810000000003
I1
I2
I1
tp118
a(F5353.915
I0
I2
I1
tp119
a(F5356.0770000000002
I2
I2
I1
tp120
a(F5379.1980000000003
I0
I1
I1
tp121
a(F5387.3729999999996
I1
I2
I1
tp122
a(F5395.7089999999998
I0
I1
I1
tp123
a(F5402.5069999999996
I1
I0
I1
tp124
a(F5405.2389999999996
I1
I3
I1
tp125
a(F5411.3199999999997
I1
I0
I1
tp126
a(F5416.4499999999998
I0
I0
I1
tp127
a(F5422.3249999999998
I1
I0
I1
tp128
a(F5425.973
I3
I2
I1
tp129
a(F5428.0879999999997
I1
I1
I1
tp130
a(F5430.7349999999997
I1
I3
I1
tp131
a(F5436.6909999999998
I0
I2
I1
tp132
a(F5442.3109999999997
I1
I0
I1
tp133
a(F5445.665
I1
I1
I1
tp134
a(F5452.1599999999999
I0
I3
I1
tp135
a(F5459.5249999999996
I1
I2
I1
tp136
a(F5463.3580000000002
I2
I2
I1
tp137
a(F5466.7060000000001
I1
I1
I1
tp138
a(F5474.9849999999997
I2
I0
I1
tp139
a(F5485.5680000000002
I4
I2
I1
tp140
a(F5488.3149999999996
I2
I0
I1
tp141
a(F5489.2399999999998
I1
I4
I1
tp142
a(F5490.8019999999997
I2
I3
I1
tp143
a(F5493.5730000000003
I1
I2
I1
tp144
a(F5495.9660000000003
I2
I1
I1
tp145
a(F5506.3299999999999
I2
I1
I1
tp146
a(F5507.9690000000001
I3
I2
I1
tp147
a(F5509.8609999999999
I2
I3
I1
tp148
a(F5523.4049999999997
I1
I3
I1
tp149
a(F5526.3599999999997
I1
I2
I1
tp150
a(F5533.5200000000004
I0
I4
I1
tp151
a(F5535.1459999999997
I3
I0
I1
tp152
a(F5544.4560000000001
I2
I0
I1
tp153
a(F5550.268
I3
I1
I1
tp154
a(F5555.7539999999999
I1
I3
I1
tp155
a(F5571.7860000000001
I2
I2
I1
tp156
a(F5576.4769999999999
I3
I1
I1
tp157
a(F5581.7299999999996
I4
I2
I1
tp158
a(F5583.9880000000003
I3
I3
I1
tp159
a(F5594.7489999999998
I4
I0
I1
tp160
a(F5596.1509999999998
I2
I2
I1
tp161
a(F5601.0479999999998
I2
I4
I1
tp162
a(F5604.9629999999997
I2
I3
I1
tp163
a(F5611.473
I4
I1
I1
tp164
a(F5613.5469999999996
I3
I3
I1
tp165
a(F5625.3879999999999
I1
I4
I1
tp166
a(F5631.9700000000003
I4
I0
I1
tp167
a(F5636.1030000000001
I4
I1
I1
tp168
a(F5639.0479999999998
I4
I2
I1
tp169
a(F5640.7280000000001
I3
I3
I1
tp170
a(F5642.2579999999998
I4
I3
I1
tp171
a(F5654.4309999999996
I3
I4
I1
tp172
a(F5655.5249999999996
I3
I3
I1
tp173
a(F5665.7460000000001
I3
I3
I1
tp174
a(F5674.2370000000001
I2
I4
I1
tp175
a(F5677.5569999999998
I4
I3
I1
tp176
a(F5678.8119999999999
I3
I4
I1
tp177
a(F5694.0339999999997
I3
I4
I1
tp178
a(F5697.8429999999998
I4
I3
I1
tp179
a(F5736.0900000000001
I4
I2
I0
tp180
a(F5770.8599999999997
I4
I4
I1
tp181
a(F5806.3400000000001
I1
I3
I1
tp182
a(F6176.7179999999998
I3
I1
I1
tp183
a(F6216.2309999999998
I0
I4
I1
tp184
a(F6627.6660000000002
I2
I3
I1
tp185
a(F7048.9440000000004
I1
I4
I1
tp186
a(F8241.902
I4
I2
I1
tp187
a(F8920.3909999999996
I0
I2
I1
tp188
a.