ccopy_reg
_reconstructor
p1
(cneo.core.block
Block
p2
c__builtin__
object
p3
NtRp4
(dp5
S'recordingchannelgroups'
p6
(lp7
sS'index'
p8
NsS'description'
p9
VNeuronal assembly called "assembly1", consisting of the following populations:\u000a    \u000a        * Right Retina\u000a    \u000a        * Right Retina\u000a    \u000a        * Right Retina\u000a    
p10
sS'file_datetime'
p11
NsS'segments'
p12
(lp13
g1
(cneo.core.segment
Segment
p14
g3
NtRp15
(dp16
g8
NsS'analogsignals'
p17
(lp18
sS'spikes'
p19
(lp20
sS'spiketrains'
p21
(lp22
cneo.core.spiketrain
_new_spiketrain
p23
(cneo.core.spiketrain
SpikeTrain
p24
cnumpy.core.multiarray
_reconstruct
p25
(cnumpy
ndarray
p26
(I0
tS'b'
tRp27
(I1
(I1
tcnumpy
dtype
p28
(S'f8'
I0
I1
tRp29
(I3
S'<'
NNNI-1
I-1
I0
tbI00
S'\x00\x00\x00\x00\x00\x005@'
tbcquantities.quantity
_reconstruct_quantity
p30
(cquantities.quantity
Quantity
p31
g26
(I0
tp32
S'b'
tRp33
(I1
(tg29
I00
S'\x00\x00\x00\x00\x00\x00i@'
g1
(cquantities.dimensionality
Dimensionality
p34
c__builtin__
dict
p35
(dp36
cquantities.unitquantity
UnitTime
p37
(S'millisecond'
p38
g30
(g31
g26
g32
S'b'
tRp39
(I1
(tg29
I00
S'\xfc\xa9\xf1\xd2MbP?'
g1
(g34
g35
(dp40
g37
(S'second'
p41
NS's'
N(lp42
S'sec'
p43
aS'seconds'
p44
aNtRp45
(I1
(I3
I0
tp46
tbI1
stRp47
tbS'ms'
p48
N(lp49
S'milliseconds'
p50
aNtRp51
(I1
(I3
I1
tp52
tbI1
stRp53
tbg30
(g31
g26
g32
S'b'
tRp54
(I1
(tg29
I00
S'\x00\x00\x00\x00\x00\x00\xf0?'
g1
(g34
g35
(dp55
g51
I1
stRp56
tbg29
I01
g30
(g31
g26
g32
S'b'
tRp57
(I1
(tg29
I00
S'\x00\x00\x00\x00\x00\x00\xf0?'
g1
(g34
g35
(dp58
cquantities.unitquantity
UnitQuantity
p59
(S'hertz'
p60
g30
(g31
g26
g32
S'b'
tRp61
(I1
(tg29
I00
S'\x00\x00\x00\x00\x00\x00\xf0?'
g1
(g34
g35
(dp62
g45
I-1
stRp63
tbS'Hz'
p64
N(lp65
NtRp66
(I1
(I90
I96
tp67
tbI1
stRp68
tbg30
(g31
g26
g32
S'b'
tRp69
(I1
(tg29
I00
S'\x00\x00\x00\x00\x00\x00\x00\x00'
g1
(g34
g35
(dp70
g51
I1
stRp71
tbNNNNN(dp72
S'source_id'
p73
I19
sS'source_population'
p74
S'Right Retina'
p75
sS'source_index'
p76
I0
stRp77
ag23
(g24
g25
(g26
(I0
tS'b'
tRp78
(I1
(I1
tg29
I00
S'\xff\xff\xff\xff\xff\xffM@'
tbg30
(g31
g26
g32
S'b'
tRp79
(I1
(tg29
I00
S'\x00\x00\x00\x00\x00\x00i@'
g1
(g34
g35
(dp80
g51
I1
stRp81
tbg30
(g31
g26
g32
S'b'
tRp82
(I1
(tg29
I00
S'\x00\x00\x00\x00\x00\x00\xf0?'
g1
(g34
g35
(dp83
g51
I1
stRp84
tbg29
I01
g57
g30
(g31
g26
g32
S'b'
tRp85
(I1
(tg29
I00
S'\x00\x00\x00\x00\x00\x00\x00\x00'
g1
(g34
g35
(dp86
g51
I1
stRp87
tbNNNNN(dp88
g73
I27
sg74
g75
sg76
I0
stRp89
ag23
(g24
g25
(g26
(I0
tS'b'
tRp90
(I1
(I1
tg29
I00
S'\xff\xff\xff\xff\xff\x7fI@'
tbg30
(g31
g26
g32
S'b'
tRp91
(I1
(tg29
I00
S'\x00\x00\x00\x00\x00\x00i@'
g1
(g34
g35
(dp92
g51
I1
stRp93
tbg30
(g31
g26
g32
S'b'
tRp94
(I1
(tg29
I00
S'\x00\x00\x00\x00\x00\x00\xf0?'
g1
(g34
g35
(dp95
g51
I1
stRp96
tbg29
I01
g57
g30
(g31
g26
g32
S'b'
tRp97
(I1
(tg29
I00
S'\x00\x00\x00\x00\x00\x00\x00\x00'
g1
(g34
g35
(dp98
g51
I1
stRp99
tbNNNNN(dp100
g73
I35
sg74
g75
sg76
I0
stRp101
asg9
VPopulation "Right Retina"\u000a    Structure   : Line\u000a      y: 0.0\u000a      x0: 0.0\u000a      z: 0.0\u000a      dx: 1.0Local cells : 1\u000a    Cell type   : SpikeSourceArray\u000a    ID range    : 19-19\u000a    First cell on this node:\u000a      ID: 19\u000a      
p102
sg11
NsS'eventarrays'
p103
(lp104
sS'file_origin'
p105
NsS'epocharrays'
p106
(lp107
sS'events'
p108
(lp109
sS'epochs'
p110
(lp111
sS'block'
p112
NsS'irregularlysampledsignals'
p113
(lp114
sS'analogsignalarrays'
p115
(lp116
sS'annotations'
p117
(dp118
sS'rec_datetime'
p119
cdatetime
datetime
p120
(S'\x07\xdf\x0b\x0c\r\x0f*\x03\x8f\xa6'
tRp121
sS'name'
p122
S'segment000'
p123
sbasg105
Nsg117
(dp124
S'size'
p125
I1
sS'first_id'
p126
I19
sS'simulator'
p127
S'NEST'
p128
sS'first_index'
p129
I0
sS'last_index'
p130
I1
sS'script_name'
p131
S'/home/dikov/git/StereoMatching/test/src/simpleCoNet.py'
p132
sS'mpi_processes'
p133
I1
sS'dt'
p134
F0.10000000000000001
sS'label'
p135
g75
sS'last_id'
p136
I19
ssg119
g121
sg122
S'assembly1'
p137
sb.